

Microchip Technology PIC LITE Macro Assembler V2.00 build -1524193055 
                                                                                               Mon Jul 09 22:58:25 2018

Microchip Technology Omniscient Code Generator v2.00 (Free mode) build 20180527130849
     1  0000                     
      + 0000                     
     2                           ; Version 2.00
     3                           ; Generated 27/05/2018 GMT
     4                           
     5                           ; 
     6                           ; Copyright © 2018, Microchip Technology Inc. and its subsidiaries ("Microchip")
     7                           ; All rights reserved.
     8                           ; 
     9                           ; This software is developed by Microchip Technology Inc. and its subsidiaries ("Microch
                                 ip").
    10                           ; 
    11                           ; Redistribution and use in source and binary forms, with or without modification, are
    12                           ; permitted provided that the following conditions are met:
    13                           ; 
    14                           ;     1. Redistributions of source code must retain the above copyright notice, this lis
                                 t of
    15                           ;        conditions and the following disclaimer.
    16                           ; 
    17                           ;     2. Redistributions in binary form must reproduce the above copyright notice, this 
                                 list
    18                           ;        of conditions and the following disclaimer in the documentation and/or other
    19                           ;        materials provided with the distribution.
    20                           ; 
    21                           ;     3. Microchip's name may not be used to endorse or promote products derived from th
                                 is
    22                           ;        software without specific prior written permission.
    23                           ; 
    24                           ; THIS SOFTWARE IS PROVIDED BY MICROCHIP "AS IS" AND ANY EXPRESS OR IMPLIED WARRANTIES,

    25                           ; INCLUDING, BUT NOT LIMITED TO, THE IMPLIED WARRANTIES OF MERCHANTABILITY AND FITNESS F
                                 OR
    26                           ; PURPOSE ARE DISCLAIMED.  IN NO EVENT SHALL MICROCHIP BE LIABLE FOR ANY DIRECT, INDIREC
                                 T,
    27                           ; INCIDENTAL, SPECIAL, EXEMPLARY, OR CONSEQUENTIAL DAMAGES (INCLUDING BUT NOT LIMITED TO
                                 
    28                           ; PROCUREMENT OF SUBSTITUTE GOODS OR SERVICES; LOSS OF USE, DATA OR PROFITS; OR BUSINESS
                                 
    29                           ; INTERRUPTION) HOWSOEVER CAUSED AND ON ANY THEORY OF LIABILITY, WHETHER IN CONTRACT, ST
                                 RICT
    30                           ; LIABILITY, OR TORT (INCLUDING NEGLIGENCE OR OTHERWISE) ARISING IN ANY WAY OUT OF THE U
                                 SE OF
    31                           ; THIS SOFTWARE, EVEN IF ADVISED OF THE POSSIBILITY OF SUCH DAMAGE.
    32                           ; 
    33                           
    34                           
    35                           ; 
    36                           ; Code-generator required, PIC16F1508 Definitions
    37                           ; 
    38  0008                     fsr0h equ 05h
    39  0005                     fsr0l equ 04h
    40  0004                     fsr1h equ 07h
    41  0007                     fsr1l equ 06h
    42  0006                     indf equ 00h
    43  0000                     indf0 equ 00h
    44  0000                     indf1 equ 01h
    45  0001                     intcon equ 0Bh
    46  000B                     pc equ 02h
    47  0002                     pcl equ 02h
    48  0002                     pclath equ 0Ah
    49  000A                     status equ 03h
    50  0003                     wreg equ 09h
    51  0009                     
     2                           opt pagewidth 120
     3  0000                     byte0	macro	val
     4                           	(getbyte(val,0))
     5                           endm
     6  0000                     byte1	macro	val
     7                           	(getbyte(val,1))
     8                           endm
     9  0000                     byte2	macro	val
    10                           	(getbyte(val,2))
    11                           endm
    12  0000                     byte3	macro	val
    13                           	(getbyte(val,3))
    14                           endm
    15  0000                     byte4	macro	val
    16                           	(getbyte(val,4))
    17                           endm
    18  0000                     byte5	macro	val
    19                           	(getbyte(val,5))
    20                           endm
    21  0000                     byte6	macro	val
    22                           	(getbyte(val,6))
    23                           endm
    24  0000                     byte7	macro	val
    25                           	(getbyte(val,7))
    26                           endm
    27  0000                     getword	macro	val,pos
    28                           	(((val) >> (8 * pos)) and 0xffff)
    29                           endm
    30  0000                     word0	macro	val
    31                           	(getword(val,0))
    32                           endm
    33  0000                     word1	macro	val
    34                           	(getword(val,2))
    35                           endm
    36  0000                     word2	macro	val
    37                           	(getword(val,4))
    38                           endm
    39  0000                     word3	macro	val
    40                           	(getword(val,6))
    41                           endm
    42  0000                     gettword	macro	val,pos
    43                           	(((val) >> (8 * pos)) and 0xffffff)
    44                           endm
    45  0000                     tword0	macro	val
    46                           	(gettword(val,0))
    47                           endm
    48  0000                     tword1	macro	val
    49                           	(gettword(val,3))
    50                           endm
    51  0000                     tword2	macro	val
    52                           	(gettword(val,6))
    53                           endm
    54  0000                     getdword	macro	val,pos
    55                           	(((val) >> (8 * pos)) and 0xffffffff)
    56                           endm
    57  0000                     dword0	macro	val
    58                           	(getdword(val,0))
    59                           endm
    60  0000                     dword1	macro	val
    61                           	(getdword(val,4))
    62                           endm
    63  0000                     clrc	macro
    64                           	bcf	3,0
    65                           	endm
    66  0000                     clrz	macro
    67                           	bcf	3,2
    68                           	endm
    69  0000                     setc	macro
    70                           	bsf	3,0
    71                           	endm
    72  0000                     setz	macro
    73                           	bsf	3,2
    74                           	endm
    75  0000                     skipc	macro
    76                           	btfss	3,0
    77                           	endm
    78  0000                     skipz	macro
    79                           	btfss	3,2
    80                           	endm
    81  0000                     skipnc	macro
    82                           	btfsc	3,0
    83                           	endm
    84  0000                     skipnz	macro
    85                           	btfsc	3,2
    86                           	endm
    87  0000                     pushw	macro
    88                           	movwi fsr1++
    89                           	endm
    90  0000                     popw	macro
    91                           	moviw --fsr1
    92                           	endm
    93  0000                     # 54 "C:\Program Files (x86)\Microchip\xc8\v2.00\pic\include\pic16f1508.h"
    94                           INDF0 equ 00h ;# 
    95  0000                     # 74 "C:\Program Files (x86)\Microchip\xc8\v2.00\pic\include\pic16f1508.h"
    96                           INDF1 equ 01h ;# 
    97  0001                     # 94 "C:\Program Files (x86)\Microchip\xc8\v2.00\pic\include\pic16f1508.h"
    98                           PCL equ 02h ;# 
    99  0002                     # 114 "C:\Program Files (x86)\Microchip\xc8\v2.00\pic\include\pic16f1508.h"
   100                           STATUS equ 03h ;# 
   101  0003                     # 177 "C:\Program Files (x86)\Microchip\xc8\v2.00\pic\include\pic16f1508.h"
   102                           FSR0L equ 04h ;# 
   103  0004                     # 197 "C:\Program Files (x86)\Microchip\xc8\v2.00\pic\include\pic16f1508.h"
   104                           FSR0H equ 05h ;# 
   105  0005                     # 221 "C:\Program Files (x86)\Microchip\xc8\v2.00\pic\include\pic16f1508.h"
   106                           FSR1L equ 06h ;# 
   107  0006                     # 241 "C:\Program Files (x86)\Microchip\xc8\v2.00\pic\include\pic16f1508.h"
   108                           FSR1H equ 07h ;# 
   109  0007                     # 261 "C:\Program Files (x86)\Microchip\xc8\v2.00\pic\include\pic16f1508.h"
   110                           BSR equ 08h ;# 
   111  0008                     # 313 "C:\Program Files (x86)\Microchip\xc8\v2.00\pic\include\pic16f1508.h"
   112                           WREG equ 09h ;# 
   113  0009                     # 333 "C:\Program Files (x86)\Microchip\xc8\v2.00\pic\include\pic16f1508.h"
   114                           PCLATH equ 0Ah ;# 
   115  000A                     # 353 "C:\Program Files (x86)\Microchip\xc8\v2.00\pic\include\pic16f1508.h"
   116                           INTCON equ 0Bh ;# 
   117  000B                     # 431 "C:\Program Files (x86)\Microchip\xc8\v2.00\pic\include\pic16f1508.h"
   118                           PORTA equ 0Ch ;# 
   119  000C                     # 481 "C:\Program Files (x86)\Microchip\xc8\v2.00\pic\include\pic16f1508.h"
   120                           PORTB equ 0Dh ;# 
   121  000D                     # 520 "C:\Program Files (x86)\Microchip\xc8\v2.00\pic\include\pic16f1508.h"
   122                           PORTC equ 0Eh ;# 
   123  000E                     # 582 "C:\Program Files (x86)\Microchip\xc8\v2.00\pic\include\pic16f1508.h"
   124                           PIR1 equ 011h ;# 
   125  0011                     # 639 "C:\Program Files (x86)\Microchip\xc8\v2.00\pic\include\pic16f1508.h"
   126                           PIR2 equ 012h ;# 
   127  0012                     # 685 "C:\Program Files (x86)\Microchip\xc8\v2.00\pic\include\pic16f1508.h"
   128                           PIR3 equ 013h ;# 
   129  0013                     # 723 "C:\Program Files (x86)\Microchip\xc8\v2.00\pic\include\pic16f1508.h"
   130                           TMR0 equ 015h ;# 
   131  0015                     # 743 "C:\Program Files (x86)\Microchip\xc8\v2.00\pic\include\pic16f1508.h"
   132                           TMR1 equ 016h ;# 
   133  0016                     # 750 "C:\Program Files (x86)\Microchip\xc8\v2.00\pic\include\pic16f1508.h"
   134                           TMR1L equ 016h ;# 
   135  0016                     # 770 "C:\Program Files (x86)\Microchip\xc8\v2.00\pic\include\pic16f1508.h"
   136                           TMR1H equ 017h ;# 
   137  0017                     # 790 "C:\Program Files (x86)\Microchip\xc8\v2.00\pic\include\pic16f1508.h"
   138                           T1CON equ 018h ;# 
   139  0018                     # 862 "C:\Program Files (x86)\Microchip\xc8\v2.00\pic\include\pic16f1508.h"
   140                           T1GCON equ 019h ;# 
   141  0019                     # 932 "C:\Program Files (x86)\Microchip\xc8\v2.00\pic\include\pic16f1508.h"
   142                           TMR2 equ 01Ah ;# 
   143  001A                     # 952 "C:\Program Files (x86)\Microchip\xc8\v2.00\pic\include\pic16f1508.h"
   144                           PR2 equ 01Bh ;# 
   145  001B                     # 972 "C:\Program Files (x86)\Microchip\xc8\v2.00\pic\include\pic16f1508.h"
   146                           T2CON equ 01Ch ;# 
   147  001C                     # 1043 "C:\Program Files (x86)\Microchip\xc8\v2.00\pic\include\pic16f1508.h"
   148                           TRISA equ 08Ch ;# 
   149  008C                     # 1093 "C:\Program Files (x86)\Microchip\xc8\v2.00\pic\include\pic16f1508.h"
   150                           TRISB equ 08Dh ;# 
   151  008D                     # 1132 "C:\Program Files (x86)\Microchip\xc8\v2.00\pic\include\pic16f1508.h"
   152                           TRISC equ 08Eh ;# 
   153  008E                     # 1194 "C:\Program Files (x86)\Microchip\xc8\v2.00\pic\include\pic16f1508.h"
   154                           PIE1 equ 091h ;# 
   155  0091                     # 1251 "C:\Program Files (x86)\Microchip\xc8\v2.00\pic\include\pic16f1508.h"
   156                           PIE2 equ 092h ;# 
   157  0092                     # 1297 "C:\Program Files (x86)\Microchip\xc8\v2.00\pic\include\pic16f1508.h"
   158                           PIE3 equ 093h ;# 
   159  0093                     # 1335 "C:\Program Files (x86)\Microchip\xc8\v2.00\pic\include\pic16f1508.h"
   160                           OPTION_REG equ 095h ;# 
   161  0095                     # 1418 "C:\Program Files (x86)\Microchip\xc8\v2.00\pic\include\pic16f1508.h"
   162                           PCON equ 096h ;# 
   163  0096                     # 1475 "C:\Program Files (x86)\Microchip\xc8\v2.00\pic\include\pic16f1508.h"
   164                           WDTCON equ 097h ;# 
   165  0097                     # 1534 "C:\Program Files (x86)\Microchip\xc8\v2.00\pic\include\pic16f1508.h"
   166                           OSCCON equ 099h ;# 
   167  0099                     # 1600 "C:\Program Files (x86)\Microchip\xc8\v2.00\pic\include\pic16f1508.h"
   168                           OSCSTAT equ 09Ah ;# 
   169  009A                     # 1646 "C:\Program Files (x86)\Microchip\xc8\v2.00\pic\include\pic16f1508.h"
   170                           ADRES equ 09Bh ;# 
   171  009B                     # 1653 "C:\Program Files (x86)\Microchip\xc8\v2.00\pic\include\pic16f1508.h"
   172                           ADRESL equ 09Bh ;# 
   173  009B                     # 1673 "C:\Program Files (x86)\Microchip\xc8\v2.00\pic\include\pic16f1508.h"
   174                           ADRESH equ 09Ch ;# 
   175  009C                     # 1693 "C:\Program Files (x86)\Microchip\xc8\v2.00\pic\include\pic16f1508.h"
   176                           ADCON0 equ 09Dh ;# 
   177  009D                     # 1773 "C:\Program Files (x86)\Microchip\xc8\v2.00\pic\include\pic16f1508.h"
   178                           ADCON1 equ 09Eh ;# 
   179  009E                     # 1820 "C:\Program Files (x86)\Microchip\xc8\v2.00\pic\include\pic16f1508.h"
   180                           ADCON2 equ 09Fh ;# 
   181  009F                     # 1868 "C:\Program Files (x86)\Microchip\xc8\v2.00\pic\include\pic16f1508.h"
   182                           LATA equ 010Ch ;# 
   183  010C                     # 1913 "C:\Program Files (x86)\Microchip\xc8\v2.00\pic\include\pic16f1508.h"
   184                           LATB equ 010Dh ;# 
   185  010D                     # 1952 "C:\Program Files (x86)\Microchip\xc8\v2.00\pic\include\pic16f1508.h"
   186                           LATC equ 010Eh ;# 
   187  010E                     # 2014 "C:\Program Files (x86)\Microchip\xc8\v2.00\pic\include\pic16f1508.h"
   188                           CM1CON0 equ 0111h ;# 
   189  0111                     # 2071 "C:\Program Files (x86)\Microchip\xc8\v2.00\pic\include\pic16f1508.h"
   190                           CM1CON1 equ 0112h ;# 
   191  0112                     # 2143 "C:\Program Files (x86)\Microchip\xc8\v2.00\pic\include\pic16f1508.h"
   192                           CM2CON0 equ 0113h ;# 
   193  0113                     # 2200 "C:\Program Files (x86)\Microchip\xc8\v2.00\pic\include\pic16f1508.h"
   194                           CM2CON1 equ 0114h ;# 
   195  0114                     # 2272 "C:\Program Files (x86)\Microchip\xc8\v2.00\pic\include\pic16f1508.h"
   196                           CMOUT equ 0115h ;# 
   197  0115                     # 2298 "C:\Program Files (x86)\Microchip\xc8\v2.00\pic\include\pic16f1508.h"
   198                           BORCON equ 0116h ;# 
   199  0116                     # 2331 "C:\Program Files (x86)\Microchip\xc8\v2.00\pic\include\pic16f1508.h"
   200                           FVRCON equ 0117h ;# 
   201  0117                     # 2407 "C:\Program Files (x86)\Microchip\xc8\v2.00\pic\include\pic16f1508.h"
   202                           DACCON0 equ 0118h ;# 
   203  0118                     # 2448 "C:\Program Files (x86)\Microchip\xc8\v2.00\pic\include\pic16f1508.h"
   204                           DACCON1 equ 0119h ;# 
   205  0119                     # 2500 "C:\Program Files (x86)\Microchip\xc8\v2.00\pic\include\pic16f1508.h"
   206                           APFCON equ 011Dh ;# 
   207  011D                     # 2547 "C:\Program Files (x86)\Microchip\xc8\v2.00\pic\include\pic16f1508.h"
   208                           ANSELA equ 018Ch ;# 
   209  018C                     # 2594 "C:\Program Files (x86)\Microchip\xc8\v2.00\pic\include\pic16f1508.h"
   210                           ANSELB equ 018Dh ;# 
   211  018D                     # 2630 "C:\Program Files (x86)\Microchip\xc8\v2.00\pic\include\pic16f1508.h"
   212                           ANSELC equ 018Eh ;# 
   213  018E                     # 2689 "C:\Program Files (x86)\Microchip\xc8\v2.00\pic\include\pic16f1508.h"
   214                           PMADR equ 0191h ;# 
   215  0191                     # 2696 "C:\Program Files (x86)\Microchip\xc8\v2.00\pic\include\pic16f1508.h"
   216                           PMADRL equ 0191h ;# 
   217  0191                     # 2716 "C:\Program Files (x86)\Microchip\xc8\v2.00\pic\include\pic16f1508.h"
   218                           PMADRH equ 0192h ;# 
   219  0192                     # 2736 "C:\Program Files (x86)\Microchip\xc8\v2.00\pic\include\pic16f1508.h"
   220                           PMDAT equ 0193h ;# 
   221  0193                     # 2743 "C:\Program Files (x86)\Microchip\xc8\v2.00\pic\include\pic16f1508.h"
   222                           PMDATL equ 0193h ;# 
   223  0193                     # 2763 "C:\Program Files (x86)\Microchip\xc8\v2.00\pic\include\pic16f1508.h"
   224                           PMDATH equ 0194h ;# 
   225  0194                     # 2783 "C:\Program Files (x86)\Microchip\xc8\v2.00\pic\include\pic16f1508.h"
   226                           PMCON1 equ 0195h ;# 
   227  0195                     # 2839 "C:\Program Files (x86)\Microchip\xc8\v2.00\pic\include\pic16f1508.h"
   228                           PMCON2 equ 0196h ;# 
   229  0196                     # 2859 "C:\Program Files (x86)\Microchip\xc8\v2.00\pic\include\pic16f1508.h"
   230                           VREGCON equ 0197h ;# 
   231  0197                     # 2880 "C:\Program Files (x86)\Microchip\xc8\v2.00\pic\include\pic16f1508.h"
   232                           RCREG equ 0199h ;# 
   233  0199                     # 2900 "C:\Program Files (x86)\Microchip\xc8\v2.00\pic\include\pic16f1508.h"
   234                           TXREG equ 019Ah ;# 
   235  019A                     # 2920 "C:\Program Files (x86)\Microchip\xc8\v2.00\pic\include\pic16f1508.h"
   236                           SPBRG equ 019Bh ;# 
   237  019B                     # 2927 "C:\Program Files (x86)\Microchip\xc8\v2.00\pic\include\pic16f1508.h"
   238                           SPBRGL equ 019Bh ;# 
   239  019B                     # 2947 "C:\Program Files (x86)\Microchip\xc8\v2.00\pic\include\pic16f1508.h"
   240                           SPBRGH equ 019Ch ;# 
   241  019C                     # 2967 "C:\Program Files (x86)\Microchip\xc8\v2.00\pic\include\pic16f1508.h"
   242                           RCSTA equ 019Dh ;# 
   243  019D                     # 3029 "C:\Program Files (x86)\Microchip\xc8\v2.00\pic\include\pic16f1508.h"
   244                           TXSTA equ 019Eh ;# 
   245  019E                     # 3091 "C:\Program Files (x86)\Microchip\xc8\v2.00\pic\include\pic16f1508.h"
   246                           BAUDCON equ 019Fh ;# 
   247  019F                     # 3143 "C:\Program Files (x86)\Microchip\xc8\v2.00\pic\include\pic16f1508.h"
   248                           WPUA equ 020Ch ;# 
   249  020C                     # 3201 "C:\Program Files (x86)\Microchip\xc8\v2.00\pic\include\pic16f1508.h"
   250                           WPUB equ 020Dh ;# 
   251  020D                     # 3249 "C:\Program Files (x86)\Microchip\xc8\v2.00\pic\include\pic16f1508.h"
   252                           SSP1BUF equ 0211h ;# 
   253  0211                     # 3254 "C:\Program Files (x86)\Microchip\xc8\v2.00\pic\include\pic16f1508.h"
   254                           SSPBUF equ 0211h ;# 
   255  0211                     # 3287 "C:\Program Files (x86)\Microchip\xc8\v2.00\pic\include\pic16f1508.h"
   256                           SSP1ADD equ 0212h ;# 
   257  0212                     # 3292 "C:\Program Files (x86)\Microchip\xc8\v2.00\pic\include\pic16f1508.h"
   258                           SSPADD equ 0212h ;# 
   259  0212                     # 3325 "C:\Program Files (x86)\Microchip\xc8\v2.00\pic\include\pic16f1508.h"
   260                           SSP1MSK equ 0213h ;# 
   261  0213                     # 3330 "C:\Program Files (x86)\Microchip\xc8\v2.00\pic\include\pic16f1508.h"
   262                           SSPMSK equ 0213h ;# 
   263  0213                     # 3363 "C:\Program Files (x86)\Microchip\xc8\v2.00\pic\include\pic16f1508.h"
   264                           SSP1STAT equ 0214h ;# 
   265  0214                     # 3368 "C:\Program Files (x86)\Microchip\xc8\v2.00\pic\include\pic16f1508.h"
   266                           SSPSTAT equ 0214h ;# 
   267  0214                     # 3485 "C:\Program Files (x86)\Microchip\xc8\v2.00\pic\include\pic16f1508.h"
   268                           SSP1CON1 equ 0215h ;# 
   269  0215                     # 3490 "C:\Program Files (x86)\Microchip\xc8\v2.00\pic\include\pic16f1508.h"
   270                           SSPCON equ 0215h ;# 
   271  0215                     # 3494 "C:\Program Files (x86)\Microchip\xc8\v2.00\pic\include\pic16f1508.h"
   272                           SSPCON1 equ 0215h ;# 
   273  0215                     # 3689 "C:\Program Files (x86)\Microchip\xc8\v2.00\pic\include\pic16f1508.h"
   274                           SSP1CON2 equ 0216h ;# 
   275  0216                     # 3694 "C:\Program Files (x86)\Microchip\xc8\v2.00\pic\include\pic16f1508.h"
   276                           SSPCON2 equ 0216h ;# 
   277  0216                     # 3811 "C:\Program Files (x86)\Microchip\xc8\v2.00\pic\include\pic16f1508.h"
   278                           SSP1CON3 equ 0217h ;# 
   279  0217                     # 3816 "C:\Program Files (x86)\Microchip\xc8\v2.00\pic\include\pic16f1508.h"
   280                           SSPCON3 equ 0217h ;# 
   281  0217                     # 3933 "C:\Program Files (x86)\Microchip\xc8\v2.00\pic\include\pic16f1508.h"
   282                           IOCAP equ 0391h ;# 
   283  0391                     # 3991 "C:\Program Files (x86)\Microchip\xc8\v2.00\pic\include\pic16f1508.h"
   284                           IOCAN equ 0392h ;# 
   285  0392                     # 4049 "C:\Program Files (x86)\Microchip\xc8\v2.00\pic\include\pic16f1508.h"
   286                           IOCAF equ 0393h ;# 
   287  0393                     # 4107 "C:\Program Files (x86)\Microchip\xc8\v2.00\pic\include\pic16f1508.h"
   288                           IOCBP equ 0394h ;# 
   289  0394                     # 4155 "C:\Program Files (x86)\Microchip\xc8\v2.00\pic\include\pic16f1508.h"
   290                           IOCBN equ 0395h ;# 
   291  0395                     # 4203 "C:\Program Files (x86)\Microchip\xc8\v2.00\pic\include\pic16f1508.h"
   292                           IOCBF equ 0396h ;# 
   293  0396                     # 4253 "C:\Program Files (x86)\Microchip\xc8\v2.00\pic\include\pic16f1508.h"
   294                           NCO1ACC equ 0498h ;# 
   295  0498                     # 4260 "C:\Program Files (x86)\Microchip\xc8\v2.00\pic\include\pic16f1508.h"
   296                           NCO1ACCL equ 0498h ;# 
   297  0498                     # 4322 "C:\Program Files (x86)\Microchip\xc8\v2.00\pic\include\pic16f1508.h"
   298                           NCO1ACCH equ 0499h ;# 
   299  0499                     # 4384 "C:\Program Files (x86)\Microchip\xc8\v2.00\pic\include\pic16f1508.h"
   300                           NCO1ACCU equ 049Ah ;# 
   301  049A                     # 4424 "C:\Program Files (x86)\Microchip\xc8\v2.00\pic\include\pic16f1508.h"
   302                           NCO1INC equ 049Bh ;# 
   303  049B                     # 4431 "C:\Program Files (x86)\Microchip\xc8\v2.00\pic\include\pic16f1508.h"
   304                           NCO1INCL equ 049Bh ;# 
   305  049B                     # 4493 "C:\Program Files (x86)\Microchip\xc8\v2.00\pic\include\pic16f1508.h"
   306                           NCO1INCH equ 049Ch ;# 
   307  049C                     # 4555 "C:\Program Files (x86)\Microchip\xc8\v2.00\pic\include\pic16f1508.h"
   308                           NCO1INCU equ 049Dh ;# 
   309  049D                     # 4562 "C:\Program Files (x86)\Microchip\xc8\v2.00\pic\include\pic16f1508.h"
   310                           NCO1CON equ 049Eh ;# 
   311  049E                     # 4607 "C:\Program Files (x86)\Microchip\xc8\v2.00\pic\include\pic16f1508.h"
   312                           NCO1CLK equ 049Fh ;# 
   313  049F                     # 4667 "C:\Program Files (x86)\Microchip\xc8\v2.00\pic\include\pic16f1508.h"
   314                           PWM1DCL equ 0611h ;# 
   315  0611                     # 4703 "C:\Program Files (x86)\Microchip\xc8\v2.00\pic\include\pic16f1508.h"
   316                           PWM1DCH equ 0612h ;# 
   317  0612                     # 4773 "C:\Program Files (x86)\Microchip\xc8\v2.00\pic\include\pic16f1508.h"
   318                           PWM1CON equ 0613h ;# 
   319  0613                     # 4778 "C:\Program Files (x86)\Microchip\xc8\v2.00\pic\include\pic16f1508.h"
   320                           PWM1CON0 equ 0613h ;# 
   321  0613                     # 4849 "C:\Program Files (x86)\Microchip\xc8\v2.00\pic\include\pic16f1508.h"
   322                           PWM2DCL equ 0614h ;# 
   323  0614                     # 4885 "C:\Program Files (x86)\Microchip\xc8\v2.00\pic\include\pic16f1508.h"
   324                           PWM2DCH equ 0615h ;# 
   325  0615                     # 4955 "C:\Program Files (x86)\Microchip\xc8\v2.00\pic\include\pic16f1508.h"
   326                           PWM2CON equ 0616h ;# 
   327  0616                     # 4960 "C:\Program Files (x86)\Microchip\xc8\v2.00\pic\include\pic16f1508.h"
   328                           PWM2CON0 equ 0616h ;# 
   329  0616                     # 5031 "C:\Program Files (x86)\Microchip\xc8\v2.00\pic\include\pic16f1508.h"
   330                           PWM3DCL equ 0617h ;# 
   331  0617                     # 5067 "C:\Program Files (x86)\Microchip\xc8\v2.00\pic\include\pic16f1508.h"
   332                           PWM3DCH equ 0618h ;# 
   333  0618                     # 5137 "C:\Program Files (x86)\Microchip\xc8\v2.00\pic\include\pic16f1508.h"
   334                           PWM3CON equ 0619h ;# 
   335  0619                     # 5142 "C:\Program Files (x86)\Microchip\xc8\v2.00\pic\include\pic16f1508.h"
   336                           PWM3CON0 equ 0619h ;# 
   337  0619                     # 5213 "C:\Program Files (x86)\Microchip\xc8\v2.00\pic\include\pic16f1508.h"
   338                           PWM4DCL equ 061Ah ;# 
   339  061A                     # 5249 "C:\Program Files (x86)\Microchip\xc8\v2.00\pic\include\pic16f1508.h"
   340                           PWM4DCH equ 061Bh ;# 
   341  061B                     # 5319 "C:\Program Files (x86)\Microchip\xc8\v2.00\pic\include\pic16f1508.h"
   342                           PWM4CON equ 061Ch ;# 
   343  061C                     # 5324 "C:\Program Files (x86)\Microchip\xc8\v2.00\pic\include\pic16f1508.h"
   344                           PWM4CON0 equ 061Ch ;# 
   345  061C                     # 5395 "C:\Program Files (x86)\Microchip\xc8\v2.00\pic\include\pic16f1508.h"
   346                           CWG1DBR equ 0691h ;# 
   347  0691                     # 5453 "C:\Program Files (x86)\Microchip\xc8\v2.00\pic\include\pic16f1508.h"
   348                           CWG1DBF equ 0692h ;# 
   349  0692                     # 5511 "C:\Program Files (x86)\Microchip\xc8\v2.00\pic\include\pic16f1508.h"
   350                           CWG1CON0 equ 0693h ;# 
   351  0693                     # 5570 "C:\Program Files (x86)\Microchip\xc8\v2.00\pic\include\pic16f1508.h"
   352                           CWG1CON1 equ 0694h ;# 
   353  0694                     # 5647 "C:\Program Files (x86)\Microchip\xc8\v2.00\pic\include\pic16f1508.h"
   354                           CWG1CON2 equ 0695h ;# 
   355  0695                     # 5698 "C:\Program Files (x86)\Microchip\xc8\v2.00\pic\include\pic16f1508.h"
   356                           CLCDATA equ 0F0Fh ;# 
   357  0F0F                     # 5736 "C:\Program Files (x86)\Microchip\xc8\v2.00\pic\include\pic16f1508.h"
   358                           CLC1CON equ 0F10h ;# 
   359  0F10                     # 5856 "C:\Program Files (x86)\Microchip\xc8\v2.00\pic\include\pic16f1508.h"
   360                           CLC1POL equ 0F11h ;# 
   361  0F11                     # 5934 "C:\Program Files (x86)\Microchip\xc8\v2.00\pic\include\pic16f1508.h"
   362                           CLC1SEL0 equ 0F12h ;# 
   363  0F12                     # 6039 "C:\Program Files (x86)\Microchip\xc8\v2.00\pic\include\pic16f1508.h"
   364                           CLC1SEL1 equ 0F13h ;# 
   365  0F13                     # 6144 "C:\Program Files (x86)\Microchip\xc8\v2.00\pic\include\pic16f1508.h"
   366                           CLC1GLS0 equ 0F14h ;# 
   367  0F14                     # 6256 "C:\Program Files (x86)\Microchip\xc8\v2.00\pic\include\pic16f1508.h"
   368                           CLC1GLS1 equ 0F15h ;# 
   369  0F15                     # 6368 "C:\Program Files (x86)\Microchip\xc8\v2.00\pic\include\pic16f1508.h"
   370                           CLC1GLS2 equ 0F16h ;# 
   371  0F16                     # 6480 "C:\Program Files (x86)\Microchip\xc8\v2.00\pic\include\pic16f1508.h"
   372                           CLC1GLS3 equ 0F17h ;# 
   373  0F17                     # 6592 "C:\Program Files (x86)\Microchip\xc8\v2.00\pic\include\pic16f1508.h"
   374                           CLC2CON equ 0F18h ;# 
   375  0F18                     # 6712 "C:\Program Files (x86)\Microchip\xc8\v2.00\pic\include\pic16f1508.h"
   376                           CLC2POL equ 0F19h ;# 
   377  0F19                     # 6790 "C:\Program Files (x86)\Microchip\xc8\v2.00\pic\include\pic16f1508.h"
   378                           CLC2SEL0 equ 0F1Ah ;# 
   379  0F1A                     # 6895 "C:\Program Files (x86)\Microchip\xc8\v2.00\pic\include\pic16f1508.h"
   380                           CLC2SEL1 equ 0F1Bh ;# 
   381  0F1B                     # 7000 "C:\Program Files (x86)\Microchip\xc8\v2.00\pic\include\pic16f1508.h"
   382                           CLC2GLS0 equ 0F1Ch ;# 
   383  0F1C                     # 7112 "C:\Program Files (x86)\Microchip\xc8\v2.00\pic\include\pic16f1508.h"
   384                           CLC2GLS1 equ 0F1Dh ;# 
   385  0F1D                     # 7224 "C:\Program Files (x86)\Microchip\xc8\v2.00\pic\include\pic16f1508.h"
   386                           CLC2GLS2 equ 0F1Eh ;# 
   387  0F1E                     # 7336 "C:\Program Files (x86)\Microchip\xc8\v2.00\pic\include\pic16f1508.h"
   388                           CLC2GLS3 equ 0F1Fh ;# 
   389  0F1F                     # 7448 "C:\Program Files (x86)\Microchip\xc8\v2.00\pic\include\pic16f1508.h"
   390                           CLC3CON equ 0F20h ;# 
   391  0F20                     # 7568 "C:\Program Files (x86)\Microchip\xc8\v2.00\pic\include\pic16f1508.h"
   392                           CLC3POL equ 0F21h ;# 
   393  0F21                     # 7646 "C:\Program Files (x86)\Microchip\xc8\v2.00\pic\include\pic16f1508.h"
   394                           CLC3SEL0 equ 0F22h ;# 
   395  0F22                     # 7751 "C:\Program Files (x86)\Microchip\xc8\v2.00\pic\include\pic16f1508.h"
   396                           CLC3SEL1 equ 0F23h ;# 
   397  0F23                     # 7856 "C:\Program Files (x86)\Microchip\xc8\v2.00\pic\include\pic16f1508.h"
   398                           CLC3GLS0 equ 0F24h ;# 
   399  0F24                     # 7968 "C:\Program Files (x86)\Microchip\xc8\v2.00\pic\include\pic16f1508.h"
   400                           CLC3GLS1 equ 0F25h ;# 
   401  0F25                     # 8080 "C:\Program Files (x86)\Microchip\xc8\v2.00\pic\include\pic16f1508.h"
   402                           CLC3GLS2 equ 0F26h ;# 
   403  0F26                     # 8192 "C:\Program Files (x86)\Microchip\xc8\v2.00\pic\include\pic16f1508.h"
   404                           CLC3GLS3 equ 0F27h ;# 
   405  0F27                     # 8304 "C:\Program Files (x86)\Microchip\xc8\v2.00\pic\include\pic16f1508.h"
   406                           CLC4CON equ 0F28h ;# 
   407  0F28                     # 8424 "C:\Program Files (x86)\Microchip\xc8\v2.00\pic\include\pic16f1508.h"
   408                           CLC4POL equ 0F29h ;# 
   409  0F29                     # 8502 "C:\Program Files (x86)\Microchip\xc8\v2.00\pic\include\pic16f1508.h"
   410                           CLC4SEL0 equ 0F2Ah ;# 
   411  0F2A                     # 8607 "C:\Program Files (x86)\Microchip\xc8\v2.00\pic\include\pic16f1508.h"
   412                           CLC4SEL1 equ 0F2Bh ;# 
   413  0F2B                     # 8712 "C:\Program Files (x86)\Microchip\xc8\v2.00\pic\include\pic16f1508.h"
   414                           CLC4GLS0 equ 0F2Ch ;# 
   415  0F2C                     # 8824 "C:\Program Files (x86)\Microchip\xc8\v2.00\pic\include\pic16f1508.h"
   416                           CLC4GLS1 equ 0F2Dh ;# 
   417  0F2D                     # 8936 "C:\Program Files (x86)\Microchip\xc8\v2.00\pic\include\pic16f1508.h"
   418                           CLC4GLS2 equ 0F2Eh ;# 
   419  0F2E                     # 9048 "C:\Program Files (x86)\Microchip\xc8\v2.00\pic\include\pic16f1508.h"
   420                           CLC4GLS3 equ 0F2Fh ;# 
   421  0F2F                     # 9160 "C:\Program Files (x86)\Microchip\xc8\v2.00\pic\include\pic16f1508.h"
   422                           ICDIO equ 0F8Ch ;# 
   423  0F8C                     # 9211 "C:\Program Files (x86)\Microchip\xc8\v2.00\pic\include\pic16f1508.h"
   424                           ICDCON0 equ 0F8Dh ;# 
   425  0F8D                     # 9257 "C:\Program Files (x86)\Microchip\xc8\v2.00\pic\include\pic16f1508.h"
   426                           ICDSTAT equ 0F91h ;# 
   427  0F91                     # 9291 "C:\Program Files (x86)\Microchip\xc8\v2.00\pic\include\pic16f1508.h"
   428                           DEVSEL equ 0F95h ;# 
   429  0F95                     # 9323 "C:\Program Files (x86)\Microchip\xc8\v2.00\pic\include\pic16f1508.h"
   430                           ICDINSTL equ 0F96h ;# 
   431  0F96                     # 9385 "C:\Program Files (x86)\Microchip\xc8\v2.00\pic\include\pic16f1508.h"
   432                           ICDINSTH equ 0F97h ;# 
   433  0F97                     # 9435 "C:\Program Files (x86)\Microchip\xc8\v2.00\pic\include\pic16f1508.h"
   434                           ICDBK0CON equ 0F9Ch ;# 
   435  0F9C                     # 9462 "C:\Program Files (x86)\Microchip\xc8\v2.00\pic\include\pic16f1508.h"
   436                           ICDBK0L equ 0F9Dh ;# 
   437  0F9D                     # 9524 "C:\Program Files (x86)\Microchip\xc8\v2.00\pic\include\pic16f1508.h"
   438                           ICDBK0H equ 0F9Eh ;# 
   439  0F9E                     # 9580 "C:\Program Files (x86)\Microchip\xc8\v2.00\pic\include\pic16f1508.h"
   440                           BSRICDSHAD equ 0FE3h ;# 
   441  0FE3                     # 9600 "C:\Program Files (x86)\Microchip\xc8\v2.00\pic\include\pic16f1508.h"
   442                           STATUS_SHAD equ 0FE4h ;# 
   443  0FE4                     # 9632 "C:\Program Files (x86)\Microchip\xc8\v2.00\pic\include\pic16f1508.h"
   444                           WREG_SHAD equ 0FE5h ;# 
   445  0FE5                     # 9652 "C:\Program Files (x86)\Microchip\xc8\v2.00\pic\include\pic16f1508.h"
   446                           BSR_SHAD equ 0FE6h ;# 
   447  0FE6                     # 9672 "C:\Program Files (x86)\Microchip\xc8\v2.00\pic\include\pic16f1508.h"
   448                           PCLATH_SHAD equ 0FE7h ;# 
   449  0FE7                     # 9692 "C:\Program Files (x86)\Microchip\xc8\v2.00\pic\include\pic16f1508.h"
   450                           FSR0L_SHAD equ 0FE8h ;# 
   451  0FE8                     # 9712 "C:\Program Files (x86)\Microchip\xc8\v2.00\pic\include\pic16f1508.h"
   452                           FSR0H_SHAD equ 0FE9h ;# 
   453  0FE9                     # 9732 "C:\Program Files (x86)\Microchip\xc8\v2.00\pic\include\pic16f1508.h"
   454                           FSR1L_SHAD equ 0FEAh ;# 
   455  0FEA                     # 9752 "C:\Program Files (x86)\Microchip\xc8\v2.00\pic\include\pic16f1508.h"
   456                           FSR1H_SHAD equ 0FEBh ;# 
   457  0FEB                     # 9772 "C:\Program Files (x86)\Microchip\xc8\v2.00\pic\include\pic16f1508.h"
   458                           STKPTR equ 0FEDh ;# 
   459  0FED                     # 9792 "C:\Program Files (x86)\Microchip\xc8\v2.00\pic\include\pic16f1508.h"
   460                           TOSL equ 0FEEh ;# 
   461  0FEE                     # 9812 "C:\Program Files (x86)\Microchip\xc8\v2.00\pic\include\pic16f1508.h"
   462                           TOSH equ 0FEFh ;# 
   463  0FEF                     	FNCALL	_main,_display
   464                           	FNCALL	_main,_display_dash
   465                           	FNROOT	_main
   466                           	FNCALL	intlevel1,_myIsr
   467                           	global	intlevel1
   468                           	FNROOT	intlevel1
   469                           	global	_on
   470                           	global	_no_spi_digit
   471                           	global	_no_spi_counter
   472                           	global	_digit_error
   473                           	global	_temp_digit
   474                           	global	_t
   475                           	global	_no_spi_timer
   476                           	global	_buf
   477                           	global	_update
   478                           	global	_no_spi
   479                           	global	_digit4
   480                           	global	_digit3
   481                           	global	_digit2
   482                           	global	_digit1
   483                           	global	_off
   484                           psect	nvCOMMON,class=COMMON,space=1,noexec
   485                           global __pnvCOMMON
   486                           __pnvCOMMON:
   487  0079                     _off:
   488  0079                            ds      1
   489  0079                     
   490                           	global	_TMR2
   491                           _TMR2	set	0x1A
   492  001A                     	global	_PR2
   493                           _PR2	set	0x1B
   494  001B                     	global	_T2CON
   495                           _T2CON	set	0x1C
   496  001C                     	global	_TMR2ON
   497                           _TMR2ON	set	0xE2
   498  00E2                     	global	_PEIE
   499                           _PEIE	set	0x5E
   500  005E                     	global	_GIE
   501                           _GIE	set	0x5F
   502  005F                     	global	_SSP1IF
   503                           _SSP1IF	set	0x8B
   504  008B                     	global	_TMR2IF
   505                           _TMR2IF	set	0x89
   506  0089                     	global	_TRISC
   507                           _TRISC	set	0x8E
   508  008E                     	global	_TRISB
   509                           _TRISB	set	0x8D
   510  008D                     	global	_TRISA
   511                           _TRISA	set	0x8C
   512  008C                     	global	_TMR2IE
   513                           _TMR2IE	set	0x489
   514  0489                     	global	_SSP1IE
   515                           _SSP1IE	set	0x48B
   516  048B                     	global	_SCS0
   517                           _SCS0	set	0x4C8
   518  04C8                     	global	_SCS1
   519                           _SCS1	set	0x4C9
   520  04C9                     	global	_IRCF0
   521                           _IRCF0	set	0x4CB
   522  04CB                     	global	_IRCF1
   523                           _IRCF1	set	0x4CC
   524  04CC                     	global	_IRCF2
   525                           _IRCF2	set	0x4CD
   526  04CD                     	global	_IRCF3
   527                           _IRCF3	set	0x4CE
   528  04CE                     	global	_LATBbits
   529                           _LATBbits	set	0x10D
   530  010D                     	global	_LATCbits
   531                           _LATCbits	set	0x10E
   532  010E                     	global	_LATAbits
   533                           _LATAbits	set	0x10C
   534  010C                     	global	_SSSEL
   535                           _SSSEL	set	0x8EC
   536  08EC                     	global	_ANSELC
   537                           _ANSELC	set	0x18E
   538  018E                     	global	_ANSELB
   539                           _ANSELB	set	0x18D
   540  018D                     	global	_ANSELA
   541                           _ANSELA	set	0x18C
   542  018C                     	global	_SSPCON3
   543                           _SSPCON3	set	0x217
   544  0217                     	global	_SSPCON1
   545                           _SSPCON1	set	0x215
   546  0215                     	global	_SSPSTAT
   547                           _SSPSTAT	set	0x214
   548  0214                     	global	_WPUB
   549                           _WPUB	set	0x20D
   550  020D                     	global	_WPUA
   551                           _WPUA	set	0x20C
   552  020C                     	global	_SSP1CON1bits
   553                           _SSP1CON1bits	set	0x215
   554  0215                     	global	_SSPBUF
   555                           _SSPBUF	set	0x211
   556  0211                     	global	_SSPEN
   557                           _SSPEN	set	0x10AD
   558  10AD                     ; #config settings
   559                           global __CFG_FOSC$INTOSC
   560                           __CFG_FOSC$INTOSC equ 0x0
   561  0000                     global __CFG_WDTE$OFF
   562                           __CFG_WDTE$OFF equ 0x0
   563  0000                     global __CFG_PWRTE$OFF
   564                           __CFG_PWRTE$OFF equ 0x0
   565  0000                     global __CFG_MCLRE$OFF
   566                           __CFG_MCLRE$OFF equ 0x0
   567  0000                     global __CFG_CP$OFF
   568                           __CFG_CP$OFF equ 0x0
   569  0000                     global __CFG_BOREN$OFF
   570                           __CFG_BOREN$OFF equ 0x0
   571  0000                     global __CFG_CLKOUTEN$OFF
   572                           __CFG_CLKOUTEN$OFF equ 0x0
   573  0000                     global __CFG_IESO$OFF
   574                           __CFG_IESO$OFF equ 0x0
   575  0000                     global __CFG_FCMEN$OFF
   576                           __CFG_FCMEN$OFF equ 0x0
   577  0000                     global __CFG_WRT$OFF
   578                           __CFG_WRT$OFF equ 0x0
   579  0000                     global __CFG_STVREN$ON
   580                           __CFG_STVREN$ON equ 0x0
   581  0000                     global __CFG_BORV$LO
   582                           __CFG_BORV$LO equ 0x0
   583  0000                     global __CFG_LPBOR$OFF
   584                           __CFG_LPBOR$OFF equ 0x0
   585  0000                     global __CFG_LVP$OFF
   586                           __CFG_LVP$OFF equ 0x0
   587  0000                     	file	"C:\Users\lexa\AppData\Local\Temp\s4hg."
   588                           	line	#
   589                           psect cinit,class=CODE,delta=2
   590                           global start_initialization
   591                           start_initialization:
   592  00AA                     
   593                           global __initialization
   594                           __initialization:
   595  00AA                     psect	bssCOMMON,class=COMMON,space=1,noexec
   596                           global __pbssCOMMON
   597                           __pbssCOMMON:
   598  0070                     _on:
   599  0070                            ds      1
   600  0070                     
   601                           _no_spi_digit:
   602  0071                            ds      1
   603  0071                     
   604                           _no_spi_counter:
   605  0072                            ds      1
   606  0072                     
   607                           _digit_error:
   608  0073                            ds      1
   609  0073                     
   610                           _temp_digit:
   611  0074                            ds      1
   612  0074                     
   613                           _t:
   614  0075                            ds      1
   615  0075                     
   616                           psect	bssBANK0,class=BANK0,space=1,noexec
   617                           global __pbssBANK0
   618                           __pbssBANK0:
   619  0020                     _no_spi_timer:
   620  0020                            ds      2
   621  0020                     
   622                           _buf:
   623  0022                            ds      2
   624  0022                     
   625                           _dp4:
   626  0024                            ds      1
   627  0024                     
   628                           _dp3:
   629  0025                            ds      1
   630  0025                     
   631                           _dp2:
   632  0026                            ds      1
   633  0026                     
   634                           _dp1:
   635  0027                            ds      1
   636  0027                     
   637                           _temp_dp:
   638  0028                            ds      1
   639  0028                     
   640                           _update:
   641  0029                            ds      1
   642  0029                     
   643                           _no_spi:
   644  002A                            ds      1
   645  002A                     
   646                           _dummy:
   647  002B                            ds      1
   648  002B                     
   649                           _digit4:
   650  002C                            ds      1
   651  002C                     
   652                           _digit3:
   653  002D                            ds      1
   654  002D                     
   655                           _digit2:
   656  002E                            ds      1
   657  002E                     
   658                           _digit1:
   659  002F                            ds      1
   660  002F                     
   661                           	file	"C:\Users\lexa\AppData\Local\Temp\s4hg."
   662                           	line	#
   663                           psect clrtext,class=CODE,delta=2
   664                           global clear_ram0
   665                           ;	Called with FSR0 containing the base address, and
   666                           ;	WREG with the size to clear
   667                           clear_ram0:
   668  06E7                     	clrwdt			;clear the watchdog before getting into this loop
   669  06E7  0064               clrloop0:
   670  06E8                     	clrf	indf0		;clear RAM location pointed to by FSR
   671  06E8  0180               	addfsr	0,1
   672  06E9  3101               	decfsz wreg		;Have we reached the end of clearing yet?
   673  06EA  0B89               	goto clrloop0	;have we reached the end yet?
   674  06EB  2EE8               	retlw	0		;all done for this memory range, return
   675  06EC  3400               ; Clear objects allocated to COMMON
   676                           psect cinit,class=CODE,delta=2,merge=1
   677                           	global __pbssCOMMON
   678                           	clrf	((__pbssCOMMON)+0)&07Fh
   679  00AA  01F0               	clrf	((__pbssCOMMON)+1)&07Fh
   680  00AB  01F1               	clrf	((__pbssCOMMON)+2)&07Fh
   681  00AC  01F2               	clrf	((__pbssCOMMON)+3)&07Fh
   682  00AD  01F3               	clrf	((__pbssCOMMON)+4)&07Fh
   683  00AE  01F4               	clrf	((__pbssCOMMON)+5)&07Fh
   684  00AF  01F5               ; Clear objects allocated to BANK0
   685                           psect cinit,class=CODE,delta=2,merge=1
   686                           	global __pbssBANK0
   687                           	movlw	low(__pbssBANK0)
   688  00B0  3020               	movwf	fsr0l
   689  00B1  0084               	movlw	high(__pbssBANK0)
   690  00B2  3000               	movwf	fsr0h
   691  00B3  0085               	movlw	010h
   692  00B4  3010               	fcall	clear_ram0
   693  00B5  3186  26E7  3180   psect cinit,class=CODE,delta=2,merge=1
   694                           global end_of_initialization,__end_of__initialization
   695                           
   696                           ;End of C runtime variable initialization code
   697                           
   698                           end_of_initialization:
   699  00B8                     __end_of__initialization:
   700  00B8                     	bcf int$flags,0 ;clear compiler interrupt flag (level 1)
   701  00B8  107E               movlb 0
   702  00B9  0020               ljmp _main	;jump to C main() function
   703  00BA  318E  2E4E         psect	cstackCOMMON,class=COMMON,space=1,noexec
   704                           global __pcstackCOMMON
   705                           __pcstackCOMMON:
   706  0076                     ?_display_dash:	; 1 bytes @ 0x0
   707  0076                     ?_myIsr:	; 1 bytes @ 0x0
   708  0076                     ??_myIsr:	; 1 bytes @ 0x0
   709  0076                     ?_main:	; 1 bytes @ 0x0
   710  0076                     	ds	3
   711  0076                     ??_display:	; 1 bytes @ 0x3
   712  0079                     ??_display_dash:	; 1 bytes @ 0x3
   713  0079                     psect	cstackBANK0,class=BANK0,space=1,noexec
   714                           global __pcstackBANK0
   715                           __pcstackBANK0:
   716  0030                     ?_display:	; 1 bytes @ 0x0
   717  0030                     	global	display@x
   718                           display@x:	; 2 bytes @ 0x0
   719  0030                     	ds	2
   720  0030                     ??_main:	; 1 bytes @ 0x2
   721  0032                     	ds	2
   722  0032                     ;!
   723                           ;!Data Sizes:
   724                           ;!    Strings     0
   725                           ;!    Constant    0
   726                           ;!    Data        0
   727                           ;!    BSS         22
   728                           ;!    Persistent  1
   729                           ;!    Stack       0
   730                           ;!
   731                           ;!Auto Spaces:
   732                           ;!    Space          Size  Autos    Used
   733                           ;!    COMMON           14      3      10
   734                           ;!    BANK0            80      4      20
   735                           ;!    BANK1            80      0       0
   736                           ;!    BANK2            80      0       0
   737                           
   738                           ;!
   739                           ;!Pointer List with Targets:
   740                           ;!
   741                           ;!    None.
   742                           
   743                           
   744                           ;!
   745                           ;!Critical Paths under _main in COMMON
   746                           ;!
   747                           ;!    None.
   748                           ;!
   749                           ;!Critical Paths under _myIsr in COMMON
   750                           ;!
   751                           ;!    None.
   752                           ;!
   753                           ;!Critical Paths under _main in BANK0
   754                           ;!
   755                           ;!    _main->_display
   756                           ;!
   757                           ;!Critical Paths under _myIsr in BANK0
   758                           ;!
   759                           ;!    None.
   760                           ;!
   761                           ;!Critical Paths under _main in BANK1
   762                           ;!
   763                           ;!    None.
   764                           ;!
   765                           ;!Critical Paths under _myIsr in BANK1
   766                           ;!
   767                           ;!    None.
   768                           ;!
   769                           ;!Critical Paths under _main in BANK2
   770                           ;!
   771                           ;!    None.
   772                           ;!
   773                           ;!Critical Paths under _myIsr in BANK2
   774                           ;!
   775                           ;!    None.
   776                           
   777 ;;
   778 ;;Main: autosize = 0, tempsize = 2, incstack = 0, save=0
   779 ;;
   780                           
   781                           ;!
   782                           ;!Call Graph Tables:
   783                           ;!
   784                           ;! ---------------------------------------------------------------------------------
   785                           ;! (Depth) Function   	        Calls       Base Space   Used Autos Params    Refs
   786                           ;! ---------------------------------------------------------------------------------
   787                           ;! (0) _main                                                 2     2      0    1111
   788                           ;!                                              2 BANK0      2     2      0
   789                           ;!                            _display
   790                           ;!                       _display_dash
   791                           ;! ---------------------------------------------------------------------------------
   792                           ;! (1) _display_dash                                         0     0      0       0
   793                           ;! ---------------------------------------------------------------------------------
   794                           ;! (1) _display                                              2     0      2    1111
   795                           ;!                                              0 BANK0      2     0      2
   796                           ;! ---------------------------------------------------------------------------------
   797                           ;! Estimated maximum stack depth 1
   798                           ;! ---------------------------------------------------------------------------------
   799                           ;! (Depth) Function   	        Calls       Base Space   Used Autos Params    Refs
   800                           ;! ---------------------------------------------------------------------------------
   801                           ;! (2) _myIsr                                                3     3      0       0
   802                           ;!                                              0 COMMON     3     3      0
   803                           ;! ---------------------------------------------------------------------------------
   804                           ;! Estimated maximum stack depth 2
   805                           ;! ---------------------------------------------------------------------------------
   806                           ;!
   807                           ;! Call Graph Graphs:
   808                           ;!
   809                           ;! _main (ROOT)
   810                           ;!   _display
   811                           ;!   _display_dash
   812                           ;!
   813                           ;! _myIsr (ROOT)
   814                           ;!
   815                           
   816                           ;! Address spaces:
   817                           
   818                           ;!Name               Size   Autos  Total    Cost      Usage
   819                           ;!BIGRAM              F0      0       0       0        0.0%
   820                           ;!NULL                 0      0       0       0        0.0%
   821                           ;!CODE                 0      0       0       0        0.0%
   822                           ;!BITCOMMON            E      0       0       1        0.0%
   823                           ;!BITSFR0              0      0       0       1        0.0%
   824                           ;!SFR0                 0      0       0       1        0.0%
   825                           ;!COMMON               E      3       A       2       71.4%
   826                           ;!BITSFR1              0      0       0       2        0.0%
   827                           ;!SFR1                 0      0       0       2        0.0%
   828                           ;!BITSFR2              0      0       0       3        0.0%
   829                           ;!SFR2                 0      0       0       3        0.0%
   830                           ;!STACK                0      0       0       3        0.0%
   831                           ;!BITSFR3              0      0       0       4        0.0%
   832                           ;!SFR3                 0      0       0       4        0.0%
   833                           ;!ABS                  0      0      1E       4        0.0%
   834                           ;!BITBANK0            50      0       0       5        0.0%
   835                           ;!BITSFR4              0      0       0       5        0.0%
   836                           ;!SFR4                 0      0       0       5        0.0%
   837                           ;!BANK0               50      4      14       6       25.0%
   838                           ;!BITSFR5              0      0       0       6        0.0%
   839                           ;!SFR5                 0      0       0       6        0.0%
   840                           ;!BITBANK1            50      0       0       7        0.0%
   841                           ;!BITSFR6              0      0       0       7        0.0%
   842                           ;!SFR6                 0      0       0       7        0.0%
   843                           ;!BANK1               50      0       0       8        0.0%
   844                           ;!BITSFR7              0      0       0       8        0.0%
   845                           ;!SFR7                 0      0       0       8        0.0%
   846                           ;!BITBANK2            50      0       0       9        0.0%
   847                           ;!BITSFR8              0      0       0       9        0.0%
   848                           ;!SFR8                 0      0       0       9        0.0%
   849                           ;!BANK2               50      0       0      10        0.0%
   850                           ;!BITSFR9              0      0       0      10        0.0%
   851                           ;!SFR9                 0      0       0      10        0.0%
   852                           ;!BITSFR10             0      0       0      11        0.0%
   853                           ;!SFR10                0      0       0      11        0.0%
   854                           ;!DATA                 0      0      1E      11        0.0%
   855                           ;!BITSFR11             0      0       0      12        0.0%
   856                           ;!SFR11                0      0       0      12        0.0%
   857                           ;!BITSFR12             0      0       0      13        0.0%
   858                           ;!SFR12                0      0       0      13        0.0%
   859                           ;!BITSFR13             0      0       0      14        0.0%
   860                           ;!SFR13                0      0       0      14        0.0%
   861                           ;!BITSFR14             0      0       0      15        0.0%
   862                           ;!SFR14                0      0       0      15        0.0%
   863                           ;!BITSFR15             0      0       0      16        0.0%
   864                           ;!SFR15                0      0       0      16        0.0%
   865                           ;!BITSFR16             0      0       0      17        0.0%
   866                           ;!SFR16                0      0       0      17        0.0%
   867                           ;!BITSFR17             0      0       0      18        0.0%
   868                           ;!SFR17                0      0       0      18        0.0%
   869                           ;!BITSFR18             0      0       0      19        0.0%
   870                           ;!SFR18                0      0       0      19        0.0%
   871                           ;!BITSFR19             0      0       0      20        0.0%
   872                           ;!SFR19                0      0       0      20        0.0%
   873                           ;!BITSFR20             0      0       0      21        0.0%
   874                           ;!SFR20                0      0       0      21        0.0%
   875                           ;!BITSFR21             0      0       0      22        0.0%
   876                           ;!SFR21                0      0       0      22        0.0%
   877                           ;!BITSFR22             0      0       0      23        0.0%
   878                           ;!SFR22                0      0       0      23        0.0%
   879                           ;!BITSFR23             0      0       0      24        0.0%
   880                           ;!SFR23                0      0       0      24        0.0%
   881                           ;!BITSFR24             0      0       0      25        0.0%
   882                           ;!SFR24                0      0       0      25        0.0%
   883                           ;!BITSFR25             0      0       0      26        0.0%
   884                           ;!SFR25                0      0       0      26        0.0%
   885                           ;!BITSFR26             0      0       0      27        0.0%
   886                           ;!SFR26                0      0       0      27        0.0%
   887                           ;!BITSFR27             0      0       0      28        0.0%
   888                           ;!SFR27                0      0       0      28        0.0%
   889                           ;!BITSFR28             0      0       0      29        0.0%
   890                           ;!SFR28                0      0       0      29        0.0%
   891                           ;!BITSFR29             0      0       0      30        0.0%
   892                           ;!SFR29                0      0       0      30        0.0%
   893                           ;!BITSFR30             0      0       0      31        0.0%
   894                           ;!SFR30                0      0       0      31        0.0%
   895                           ;!BITSFR31             0      0       0      32        0.0%
   896                           ;!SFR31                0      0       0      32        0.0%
   897                           
   898                           	global	_main
   899                           
   900 ;; *************** function _main *****************
   901 ;; Defined at:
   902 ;;		line 167 in file "C:/Users/lexa/MPLABXProjects/4dLED.X/newmain4dLED_before dots.c"
   903 ;; Parameters:    Size  Location     Type
   904 ;;		None
   905 ;; Auto vars:     Size  Location     Type
   906 ;;		None
   907 ;; Return value:  Size  Location     Type
   908 ;;                  1    wreg      void 
   909 ;; Registers used:
   910 ;;		wreg, fsr0l, fsr0h, status,2, status,0, pclath, cstack
   911 ;; Tracked objects:
   912 ;;		On entry : B1F/0
   913 ;;		On exit  : 0/0
   914 ;;		Unchanged: 0/0
   915 ;; Data sizes:     COMMON   BANK0   BANK1   BANK2
   916 ;;      Params:         0       0       0       0
   917 ;;      Locals:         0       0       0       0
   918 ;;      Temps:          0       2       0       0
   919 ;;      Totals:         0       2       0       0
   920 ;;Total ram usage:        2 bytes
   921 ;; Hardware stack levels required when called:    2
   922 ;; This function calls:
   923 ;;		_display
   924 ;;		_display_dash
   925 ;; This function is called by:
   926 ;;		Startup code after reset
   927 ;; This function uses a non-reentrant model
   928 ;;
   929                           psect	maintext,global,class=CODE,delta=2,merge=1,split=1,group=0
   930                           	file	"C:/Users/lexa/MPLABXProjects/4dLED.X/newmain4dLED_before dots.c"
   931                           	line	167
   932                           global __pmaintext
   933                           __pmaintext:	;psect for function _main
   934  0E4E                     psect	maintext
   935                           	file	"C:/Users/lexa/MPLABXProjects/4dLED.X/newmain4dLED_before dots.c"
   936                           	line	167
   937                           	global	__size_of_main
   938                           	__size_of_main	equ	__end_of_main-_main
   939  01B2                     	
   940                           _main:	
   941  0E4E                     ;incstack = 0
   942                           	opt	stack 14
   943                           ; Regs used in _main: [wreg-fsr0h+status,2+status,0+pclath+cstack]
   944                           	line	169
   945                           	
   946                           l1556:	
   947  0E4E                     ;C:/Users/lexa/MPLABXProjects/4dLED.X/newmain4dLED_before dots.c: 169:     on = 0;
   948                           	clrf	(_on)
   949  0E4E  01F0               	line	170
   950                           	
   951                           l1558:	
   952  0E4F                     ;C:/Users/lexa/MPLABXProjects/4dLED.X/newmain4dLED_before dots.c: 170:     off = 1;
   953                           	clrf	(_off)
   954  0E4F  01F9               	incf	(_off),f
   955  0E50  0AF9               	line	172
   956                           	
   957                           l1560:	
   958  0E51                     ;C:/Users/lexa/MPLABXProjects/4dLED.X/newmain4dLED_before dots.c: 172:     IRCF3 = 1;
   959                           	movlb 1	; select bank1
   960  0E51  0021               	bsf	(1230/8)^080h,(1230)&7	;volatile
   961  0E52  1719               	line	173
   962                           	
   963                           l1562:	
   964  0E53                     ;C:/Users/lexa/MPLABXProjects/4dLED.X/newmain4dLED_before dots.c: 173:     IRCF2 = 1;
   965                           	bsf	(1229/8)^080h,(1229)&7	;volatile
   966  0E53  1699               	line	174
   967                           	
   968                           l1564:	
   969  0E54                     ;C:/Users/lexa/MPLABXProjects/4dLED.X/newmain4dLED_before dots.c: 174:     IRCF1 = 1;
   970                           	bsf	(1228/8)^080h,(1228)&7	;volatile
   971  0E54  1619               	line	175
   972                           	
   973                           l1566:	
   974  0E55                     ;C:/Users/lexa/MPLABXProjects/4dLED.X/newmain4dLED_before dots.c: 175:     IRCF0 = 1;
   975                           	bsf	(1227/8)^080h,(1227)&7	;volatile
   976  0E55  1599               	line	177
   977                           	
   978                           l1568:	
   979  0E56                     ;C:/Users/lexa/MPLABXProjects/4dLED.X/newmain4dLED_before dots.c: 177:     SCS1 = 1;
   980                           	bsf	(1225/8)^080h,(1225)&7	;volatile
   981  0E56  1499               	line	178
   982                           	
   983                           l1570:	
   984  0E57                     ;C:/Users/lexa/MPLABXProjects/4dLED.X/newmain4dLED_before dots.c: 178:     SCS0 = 1;
   985                           	bsf	(1224/8)^080h,(1224)&7	;volatile
   986  0E57  1419               	line	180
   987                           	
   988                           l1572:	
   989  0E58                     ;C:/Users/lexa/MPLABXProjects/4dLED.X/newmain4dLED_before dots.c: 180:     SSSEL = 1;
   990                           	movlb 2	; select bank2
   991  0E58  0022               	bsf	(2284/8)^0100h,(2284)&7	;volatile
   992  0E59  161D               	line	182
   993                           	
   994                           l1574:	
   995  0E5A                     ;C:/Users/lexa/MPLABXProjects/4dLED.X/newmain4dLED_before dots.c: 182:     TRISA = 0x0B;
                                 
   996                           	movlw	low(0Bh)
   997  0E5A  300B               	movlb 1	; select bank1
   998  0E5B  0021               	movwf	(140)^080h	;volatile
   999  0E5C  008C               	line	183
  1000                           	
  1001                           l1576:	
  1002  0E5D                     ;C:/Users/lexa/MPLABXProjects/4dLED.X/newmain4dLED_before dots.c: 183:     TRISB = 0x50;
                                 
  1003                           	movlw	low(050h)
  1004  0E5D  3050               	movwf	(141)^080h	;volatile
  1005  0E5E  008D               	line	184
  1006                           ;C:/Users/lexa/MPLABXProjects/4dLED.X/newmain4dLED_before dots.c: 184:     TRISC = 0x00;
                                 
  1007                           	clrf	(142)^080h	;volatile
  1008  0E5F  018E               	line	186
  1009                           ;C:/Users/lexa/MPLABXProjects/4dLED.X/newmain4dLED_before dots.c: 186:     ANSELA = 0x00
                                 ;
  1010                           	movlb 3	; select bank3
  1011  0E60  0023               	clrf	(396)^0180h	;volatile
  1012  0E61  018C               	line	187
  1013                           ;C:/Users/lexa/MPLABXProjects/4dLED.X/newmain4dLED_before dots.c: 187:     ANSELB = 0x00
                                 ;
  1014                           	clrf	(397)^0180h	;volatile
  1015  0E62  018D               	line	188
  1016                           ;C:/Users/lexa/MPLABXProjects/4dLED.X/newmain4dLED_before dots.c: 188:     ANSELC = 0x00
                                 ;
  1017                           	clrf	(398)^0180h	;volatile
  1018  0E63  018E               	line	190
  1019                           ;C:/Users/lexa/MPLABXProjects/4dLED.X/newmain4dLED_before dots.c: 190:     WPUA = 0x00;

  1020                           	movlb 4	; select bank4
  1021  0E64  0024               	clrf	(524)^0200h	;volatile
  1022  0E65  018C               	line	191
  1023                           ;C:/Users/lexa/MPLABXProjects/4dLED.X/newmain4dLED_before dots.c: 191:     WPUB = 0x00;

  1024                           	clrf	(525)^0200h	;volatile
  1025  0E66  018D               	line	193
  1026                           	
  1027                           l1578:	
  1028  0E67                     ;C:/Users/lexa/MPLABXProjects/4dLED.X/newmain4dLED_before dots.c: 193:     SSP1IF = 0;
  1029                           	movlb 0	; select bank0
  1030  0E67  0020               	bcf	(139/8),(139)&7	;volatile
  1031  0E68  1191               	line	194
  1032                           	
  1033                           l1580:	
  1034  0E69                     ;C:/Users/lexa/MPLABXProjects/4dLED.X/newmain4dLED_before dots.c: 194:     SSP1IE = 1;
  1035                           	movlb 1	; select bank1
  1036  0E69  0021               	bsf	(1163/8)^080h,(1163)&7	;volatile
  1037  0E6A  1591               	line	196
  1038                           ;C:/Users/lexa/MPLABXProjects/4dLED.X/newmain4dLED_before dots.c: 196:     SSPSTAT = 0x0
                                 0;
  1039                           	movlb 4	; select bank4
  1040  0E6B  0024               	clrf	(532)^0200h	;volatile
  1041  0E6C  0194               	line	197
  1042                           	
  1043                           l1582:	
  1044  0E6D                     ;C:/Users/lexa/MPLABXProjects/4dLED.X/newmain4dLED_before dots.c: 197:     SSPCON1 = 0x0
                                 5;
  1045                           	movlw	low(05h)
  1046  0E6D  3005               	movwf	(533)^0200h	;volatile
  1047  0E6E  0095               	line	198
  1048                           	
  1049                           l1584:	
  1050  0E6F                     ;C:/Users/lexa/MPLABXProjects/4dLED.X/newmain4dLED_before dots.c: 198:     SSPCON3 = 0x0
                                 0;
  1051                           	clrf	(535)^0200h	;volatile
  1052  0E6F  0197               	line	200
  1053                           ;C:/Users/lexa/MPLABXProjects/4dLED.X/newmain4dLED_before dots.c: 200:     T2CON = 0B011
                                 11001;
  1054                           	movlw	low(079h)
  1055  0E70  3079               	movlb 0	; select bank0
  1056  0E71  0020               	movwf	(28)	;volatile
  1057  0E72  009C               	line	201
  1058                           ;C:/Users/lexa/MPLABXProjects/4dLED.X/newmain4dLED_before dots.c: 201:     PR2 = 0x0a;
  1059                           	movlw	low(0Ah)
  1060  0E73  300A               	movwf	(27)	;volatile
  1061  0E74  009B               	line	202
  1062                           	
  1063                           l1586:	
  1064  0E75                     ;C:/Users/lexa/MPLABXProjects/4dLED.X/newmain4dLED_before dots.c: 202:     TMR2IF = 0;
  1065                           	bcf	(137/8),(137)&7	;volatile
  1066  0E75  1091               	line	203
  1067                           	
  1068                           l1588:	
  1069  0E76                     ;C:/Users/lexa/MPLABXProjects/4dLED.X/newmain4dLED_before dots.c: 203:     TMR2IE = 1;
  1070                           	movlb 1	; select bank1
  1071  0E76  0021               	bsf	(1161/8)^080h,(1161)&7	;volatile
  1072  0E77  1491               	line	204
  1073                           	
  1074                           l1590:	
  1075  0E78                     ;C:/Users/lexa/MPLABXProjects/4dLED.X/newmain4dLED_before dots.c: 204:     TMR2 = 0;
  1076                           	movlb 0	; select bank0
  1077  0E78  0020               	clrf	(26)	;volatile
  1078  0E79  019A               	line	206
  1079                           	
  1080                           l1592:	
  1081  0E7A                     ;C:/Users/lexa/MPLABXProjects/4dLED.X/newmain4dLED_before dots.c: 206:     LATAbits.LATA
                                 5 = off;
  1082                           	rrf	(_off),w
  1083  0E7A  0C79               	movlb 2	; select bank2
  1084  0E7B  0022               	skipc
  1085  0E7C  1C03               	bcf	(268)^0100h,5	;volatile
  1086  0E7D  128C               	skipnc
  1087  0E7E  1803               	bsf	(268)^0100h,5	;volatile
  1088  0E7F  168C               	line	207
  1089                           	
  1090                           l1594:	
  1091  0E80                     ;C:/Users/lexa/MPLABXProjects/4dLED.X/newmain4dLED_before dots.c: 207:     LATCbits.LATC
                                 2 = off;
  1092                           	rrf	(_off),w
  1093  0E80  0C79               	skipc
  1094  0E81  1C03               	bcf	(270)^0100h,2	;volatile
  1095  0E82  110E               	skipnc
  1096  0E83  1803               	bsf	(270)^0100h,2	;volatile
  1097  0E84  150E               	line	208
  1098                           	
  1099                           l1596:	
  1100  0E85                     ;C:/Users/lexa/MPLABXProjects/4dLED.X/newmain4dLED_before dots.c: 208:     LATAbits.LATA
                                 4 = off;
  1101                           	rrf	(_off),w
  1102  0E85  0C79               	skipc
  1103  0E86  1C03               	bcf	(268)^0100h,4	;volatile
  1104  0E87  120C               	skipnc
  1105  0E88  1803               	bsf	(268)^0100h,4	;volatile
  1106  0E89  160C               	line	209
  1107                           	
  1108                           l1598:	
  1109  0E8A                     ;C:/Users/lexa/MPLABXProjects/4dLED.X/newmain4dLED_before dots.c: 209:     LATCbits.LATC
                                 1 = off;
  1110                           	rrf	(_off),w
  1111  0E8A  0C79               	skipc
  1112  0E8B  1C03               	bcf	(270)^0100h,1	;volatile
  1113  0E8C  108E               	skipnc
  1114  0E8D  1803               	bsf	(270)^0100h,1	;volatile
  1115  0E8E  148E               	line	210
  1116                           	
  1117                           l1600:	
  1118  0E8F                     ;C:/Users/lexa/MPLABXProjects/4dLED.X/newmain4dLED_before dots.c: 210:     LATAbits.LATA
                                 2 = off;
  1119                           	rrf	(_off),w
  1120  0E8F  0C79               	skipc
  1121  0E90  1C03               	bcf	(268)^0100h,2	;volatile
  1122  0E91  110C               	skipnc
  1123  0E92  1803               	bsf	(268)^0100h,2	;volatile
  1124  0E93  150C               	line	211
  1125                           	
  1126                           l1602:	
  1127  0E94                     ;C:/Users/lexa/MPLABXProjects/4dLED.X/newmain4dLED_before dots.c: 211:     LATCbits.LATC
                                 0 = off;
  1128                           	rrf	(_off),w
  1129  0E94  0C79               	skipc
  1130  0E95  1C03               	bcf	(270)^0100h,0	;volatile
  1131  0E96  100E               	skipnc
  1132  0E97  1803               	bsf	(270)^0100h,0	;volatile
  1133  0E98  140E               	line	212
  1134                           	
  1135                           l1604:	
  1136  0E99                     ;C:/Users/lexa/MPLABXProjects/4dLED.X/newmain4dLED_before dots.c: 212:     LATBbits.LATB
                                 5 = off;
  1137                           	rrf	(_off),w
  1138  0E99  0C79               	skipc
  1139  0E9A  1C03               	bcf	(269)^0100h,5	;volatile
  1140  0E9B  128D               	skipnc
  1141  0E9C  1803               	bsf	(269)^0100h,5	;volatile
  1142  0E9D  168D               	line	213
  1143                           	
  1144                           l1606:	
  1145  0E9E                     ;C:/Users/lexa/MPLABXProjects/4dLED.X/newmain4dLED_before dots.c: 213:     LATCbits.LATC
                                 3 = off;
  1146                           	rrf	(_off),w
  1147  0E9E  0C79               	skipc
  1148  0E9F  1C03               	bcf	(270)^0100h,3	;volatile
  1149  0EA0  118E               	skipnc
  1150  0EA1  1803               	bsf	(270)^0100h,3	;volatile
  1151  0EA2  158E               	line	214
  1152                           	
  1153                           l1608:	
  1154  0EA3                     ;C:/Users/lexa/MPLABXProjects/4dLED.X/newmain4dLED_before dots.c: 214:     LATCbits.LATC
                                 6 = off;
  1155                           	rrf	(_off),w
  1156  0EA3  0C79               	skipc
  1157  0EA4  1C03               	bcf	(270)^0100h,6	;volatile
  1158  0EA5  130E               	skipnc
  1159  0EA6  1803               	bsf	(270)^0100h,6	;volatile
  1160  0EA7  170E               	line	215
  1161                           	
  1162                           l1610:	
  1163  0EA8                     ;C:/Users/lexa/MPLABXProjects/4dLED.X/newmain4dLED_before dots.c: 215:     LATCbits.LATC
                                 4 = off;
  1164                           	rrf	(_off),w
  1165  0EA8  0C79               	skipc
  1166  0EA9  1C03               	bcf	(270)^0100h,4	;volatile
  1167  0EAA  120E               	skipnc
  1168  0EAB  1803               	bsf	(270)^0100h,4	;volatile
  1169  0EAC  160E               	line	216
  1170                           	
  1171                           l1612:	
  1172  0EAD                     ;C:/Users/lexa/MPLABXProjects/4dLED.X/newmain4dLED_before dots.c: 216:     LATCbits.LATC
                                 5 = off;
  1173                           	rrf	(_off),w
  1174  0EAD  0C79               	skipc
  1175  0EAE  1C03               	bcf	(270)^0100h,5	;volatile
  1176  0EAF  128E               	skipnc
  1177  0EB0  1803               	bsf	(270)^0100h,5	;volatile
  1178  0EB1  168E               	line	217
  1179                           	
  1180                           l1614:	
  1181  0EB2                     ;C:/Users/lexa/MPLABXProjects/4dLED.X/newmain4dLED_before dots.c: 217:     LATBbits.LATB
                                 7 = off;
  1182                           	rrf	(_off),w
  1183  0EB2  0C79               	skipc
  1184  0EB3  1C03               	bcf	(269)^0100h,7	;volatile
  1185  0EB4  138D               	skipnc
  1186  0EB5  1803               	bsf	(269)^0100h,7	;volatile
  1187  0EB6  178D               	line	219
  1188                           	
  1189                           l1616:	
  1190  0EB7                     ;C:/Users/lexa/MPLABXProjects/4dLED.X/newmain4dLED_before dots.c: 219:     t = 0;
  1191                           	clrf	(_t)
  1192  0EB7  01F5               	line	220
  1193                           	
  1194                           l1618:	
  1195  0EB8                     ;C:/Users/lexa/MPLABXProjects/4dLED.X/newmain4dLED_before dots.c: 220:     update = 0;
  1196                           	movlb 0	; select bank0
  1197  0EB8  0020               	clrf	(_update)
  1198  0EB9  01A9               	line	221
  1199                           	
  1200                           l1620:	
  1201  0EBA                     ;C:/Users/lexa/MPLABXProjects/4dLED.X/newmain4dLED_before dots.c: 221:     no_spi = 0;
  1202                           	clrf	(_no_spi)
  1203  0EBA  01AA               	line	222
  1204                           	
  1205                           l1622:	
  1206  0EBB                     ;C:/Users/lexa/MPLABXProjects/4dLED.X/newmain4dLED_before dots.c: 222:     no_spi_timer 
                                 = 0;
  1207                           	clrf	(_no_spi_timer)
  1208  0EBB  01A0               	clrf	(_no_spi_timer+1)
  1209  0EBC  01A1               	line	223
  1210                           	
  1211                           l1624:	
  1212  0EBD                     ;C:/Users/lexa/MPLABXProjects/4dLED.X/newmain4dLED_before dots.c: 223:     no_spi_counte
                                 r = 0;
  1213                           	clrf	(_no_spi_counter)
  1214  0EBD  01F2               	line	224
  1215                           	
  1216                           l1626:	
  1217  0EBE                     ;C:/Users/lexa/MPLABXProjects/4dLED.X/newmain4dLED_before dots.c: 224:     no_spi_digit 
                                 = 0;
  1218                           	clrf	(_no_spi_digit)
  1219  0EBE  01F1               	line	226
  1220                           	
  1221                           l1628:	
  1222  0EBF                     ;C:/Users/lexa/MPLABXProjects/4dLED.X/newmain4dLED_before dots.c: 226:     GIE = 1;
  1223                           	bsf	(95/8),(95)&7	;volatile
  1224  0EBF  178B               	line	227
  1225                           	
  1226                           l1630:	
  1227  0EC0                     ;C:/Users/lexa/MPLABXProjects/4dLED.X/newmain4dLED_before dots.c: 227:     PEIE = 1;
  1228                           	bsf	(94/8),(94)&7	;volatile
  1229  0EC0  170B               	line	229
  1230                           	
  1231                           l1632:	
  1232  0EC1                     ;C:/Users/lexa/MPLABXProjects/4dLED.X/newmain4dLED_before dots.c: 229:     SSPEN = 1;
  1233                           	movlb 4	; select bank4
  1234  0EC1  0024               	bsf	(4269/8)^0200h,(4269)&7	;volatile
  1235  0EC2  1695               	line	230
  1236                           	
  1237                           l1634:	
  1238  0EC3                     ;C:/Users/lexa/MPLABXProjects/4dLED.X/newmain4dLED_before dots.c: 230:     TMR2ON = 1;
  1239                           	movlb 0	; select bank0
  1240  0EC3  0020               	bsf	(226/8),(226)&7	;volatile
  1241  0EC4  151C               	goto	l1636
  1242  0EC5  2EC6               	line	232
  1243                           ;C:/Users/lexa/MPLABXProjects/4dLED.X/newmain4dLED_before dots.c: 232:     while (1)
  1244                           	
  1245                           l141:	
  1246  0EC6                     	line	234
  1247                           	
  1248                           l1636:	
  1249  0EC6                     ;C:/Users/lexa/MPLABXProjects/4dLED.X/newmain4dLED_before dots.c: 233:     {;C:/Users/le
                                 xa/MPLABXProjects/4dLED.X/newmain4dLED_before dots.c: 234:         if (update == 1)
  1250                           		decf	((_update)),w
  1251  0EC6  0329               	btfss	status,2
  1252  0EC7  1D03               	goto	u351
  1253  0EC8  2ECA               	goto	u350
  1254  0EC9  2ECB               u351:
  1255  0ECA                     	goto	l1636
  1256  0ECA  2EC6               u350:
  1257  0ECB                     	line	236
  1258                           	
  1259                           l1638:	
  1260  0ECB                     ;C:/Users/lexa/MPLABXProjects/4dLED.X/newmain4dLED_before dots.c: 235:         {;C:/User
                                 s/lexa/MPLABXProjects/4dLED.X/newmain4dLED_before dots.c: 236:             if (no_spi ==
                                  1)
  1261                           		decf	((_no_spi)),w
  1262  0ECB  032A               	btfss	status,2
  1263  0ECC  1D03               	goto	u361
  1264  0ECD  2ECF               	goto	u360
  1265  0ECE  2ED0               u361:
  1266  0ECF                     	goto	l1712
  1267  0ECF  2FE1               u360:
  1268  0ED0                     	goto	l1676
  1269  0ED0  2F44               	line	238
  1270                           	
  1271                           l1640:	
  1272  0ED1                     ;C:/Users/lexa/MPLABXProjects/4dLED.X/newmain4dLED_before dots.c: 237:             {;C:/
                                 Users/lexa/MPLABXProjects/4dLED.X/newmain4dLED_before dots.c: 238:                 switc
                                 h (t)
  1273                           	goto	l1676
  1274  0ED1  2F44               	line	240
  1275                           ;C:/Users/lexa/MPLABXProjects/4dLED.X/newmain4dLED_before dots.c: 239:                 {
                                 ;C:/Users/lexa/MPLABXProjects/4dLED.X/newmain4dLED_before dots.c: 240:                  
                                    case 0:
  1276                           	
  1277                           l145:	
  1278  0ED2                     	line	241
  1279                           	
  1280                           l1642:	
  1281  0ED2                     ;C:/Users/lexa/MPLABXProjects/4dLED.X/newmain4dLED_before dots.c: 241:                  
                                        if (no_spi_digit == 0)
  1282                           	movf	((_no_spi_digit)),w
  1283  0ED2  0871               	btfss	status,2
  1284  0ED3  1D03               	goto	u371
  1285  0ED4  2ED6               	goto	u370
  1286  0ED5  2ED7               u371:
  1287  0ED6                     	goto	l1646
  1288  0ED6  2EE2               u370:
  1289  0ED7                     	line	243
  1290                           	
  1291                           l1644:	
  1292  0ED7                     ;C:/Users/lexa/MPLABXProjects/4dLED.X/newmain4dLED_before dots.c: 242:                  
                                        {;C:/Users/lexa/MPLABXProjects/4dLED.X/newmain4dLED_before dots.c: 243:          
                                                    display(no_spi_counter);
  1293                           	movf	(_no_spi_counter),w
  1294  0ED7  0872               	movwf	(??_main+0)+0
  1295  0ED8  00B2               	clrf	(??_main+0)+0+1
  1296  0ED9  01B3               	movf	0+(??_main+0)+0,w
  1297  0EDA  0832               	movwf	(display@x)
  1298  0EDB  00B0               	movf	1+(??_main+0)+0,w
  1299  0EDC  0833               	movwf	(display@x+1)
  1300  0EDD  00B1               	fcall	_display
  1301  0EDE  3180  20BC  318E   	line	244
  1302                           ;C:/Users/lexa/MPLABXProjects/4dLED.X/newmain4dLED_before dots.c: 244:                  
                                        }
  1303                           	goto	l1648
  1304  0EE1  2EE6               	line	245
  1305                           ;C:/Users/lexa/MPLABXProjects/4dLED.X/newmain4dLED_before dots.c: 245:                  
                                        else
  1306                           	
  1307                           l146:	
  1308  0EE2                     	line	247
  1309                           	
  1310                           l1646:	
  1311  0EE2                     ;C:/Users/lexa/MPLABXProjects/4dLED.X/newmain4dLED_before dots.c: 246:                  
                                        {;C:/Users/lexa/MPLABXProjects/4dLED.X/newmain4dLED_before dots.c: 247:          
                                                    display_dash();
  1312                           	fcall	_display_dash
  1313  0EE2  3186  26A4  318E   	goto	l1648
  1314  0EE5  2EE6               	line	248
  1315                           ;C:/Users/lexa/MPLABXProjects/4dLED.X/newmain4dLED_before dots.c: 248:                  
                                        }
  1316                           	
  1317                           l147:	
  1318  0EE6                     	line	249
  1319                           	
  1320                           l1648:	
  1321  0EE6                     ;C:/Users/lexa/MPLABXProjects/4dLED.X/newmain4dLED_before dots.c: 249:                  
                                        LATCbits.LATC6 = on;
  1322                           	rrf	(_on),w
  1323  0EE6  0C70               	movlb 2	; select bank2
  1324  0EE7  0022               	skipc
  1325  0EE8  1C03               	bcf	(270)^0100h,6	;volatile
  1326  0EE9  130E               	skipnc
  1327  0EEA  1803               	bsf	(270)^0100h,6	;volatile
  1328  0EEB  170E               	line	250
  1329                           ;C:/Users/lexa/MPLABXProjects/4dLED.X/newmain4dLED_before dots.c: 250:                  
                                        break;
  1330                           	goto	l1714
  1331  0EEC  2FF9               	line	251
  1332                           ;C:/Users/lexa/MPLABXProjects/4dLED.X/newmain4dLED_before dots.c: 251:                  
                                    case 1:
  1333                           	
  1334                           l149:	
  1335  0EED                     	line	252
  1336                           	
  1337                           l1650:	
  1338  0EED                     ;C:/Users/lexa/MPLABXProjects/4dLED.X/newmain4dLED_before dots.c: 252:                  
                                        if (no_spi_digit == 1)
  1339                           		decf	((_no_spi_digit)),w
  1340  0EED  0371               	btfss	status,2
  1341  0EEE  1D03               	goto	u381
  1342  0EEF  2EF1               	goto	u380
  1343  0EF0  2EF2               u381:
  1344  0EF1                     	goto	l1654
  1345  0EF1  2EFE               u380:
  1346  0EF2                     	line	254
  1347                           	
  1348                           l1652:	
  1349  0EF2                     ;C:/Users/lexa/MPLABXProjects/4dLED.X/newmain4dLED_before dots.c: 253:                  
                                        {;C:/Users/lexa/MPLABXProjects/4dLED.X/newmain4dLED_before dots.c: 254:          
                                                    display(no_spi_counter);
  1350                           	movf	(_no_spi_counter),w
  1351  0EF2  0872               	movlb 0	; select bank0
  1352  0EF3  0020               	movwf	(??_main+0)+0
  1353  0EF4  00B2               	clrf	(??_main+0)+0+1
  1354  0EF5  01B3               	movf	0+(??_main+0)+0,w
  1355  0EF6  0832               	movwf	(display@x)
  1356  0EF7  00B0               	movf	1+(??_main+0)+0,w
  1357  0EF8  0833               	movwf	(display@x+1)
  1358  0EF9  00B1               	fcall	_display
  1359  0EFA  3180  20BC  318E   	line	255
  1360                           ;C:/Users/lexa/MPLABXProjects/4dLED.X/newmain4dLED_before dots.c: 255:                  
                                        }
  1361                           	goto	l1656
  1362  0EFD  2F02               	line	256
  1363                           ;C:/Users/lexa/MPLABXProjects/4dLED.X/newmain4dLED_before dots.c: 256:                  
                                        else
  1364                           	
  1365                           l150:	
  1366  0EFE                     	line	258
  1367                           	
  1368                           l1654:	
  1369  0EFE                     ;C:/Users/lexa/MPLABXProjects/4dLED.X/newmain4dLED_before dots.c: 257:                  
                                        {;C:/Users/lexa/MPLABXProjects/4dLED.X/newmain4dLED_before dots.c: 258:          
                                                    display_dash();
  1370                           	fcall	_display_dash
  1371  0EFE  3186  26A4  318E   	goto	l1656
  1372  0F01  2F02               	line	259
  1373                           ;C:/Users/lexa/MPLABXProjects/4dLED.X/newmain4dLED_before dots.c: 259:                  
                                        }
  1374                           	
  1375                           l151:	
  1376  0F02                     	line	260
  1377                           	
  1378                           l1656:	
  1379  0F02                     ;C:/Users/lexa/MPLABXProjects/4dLED.X/newmain4dLED_before dots.c: 260:                  
                                        LATCbits.LATC4 = on;
  1380                           	rrf	(_on),w
  1381  0F02  0C70               	movlb 2	; select bank2
  1382  0F03  0022               	skipc
  1383  0F04  1C03               	bcf	(270)^0100h,4	;volatile
  1384  0F05  120E               	skipnc
  1385  0F06  1803               	bsf	(270)^0100h,4	;volatile
  1386  0F07  160E               	line	261
  1387                           ;C:/Users/lexa/MPLABXProjects/4dLED.X/newmain4dLED_before dots.c: 261:                  
                                        break;
  1388                           	goto	l1714
  1389  0F08  2FF9               	line	262
  1390                           ;C:/Users/lexa/MPLABXProjects/4dLED.X/newmain4dLED_before dots.c: 262:                  
                                    case 2:
  1391                           	
  1392                           l152:	
  1393  0F09                     	line	263
  1394                           	
  1395                           l1658:	
  1396  0F09                     ;C:/Users/lexa/MPLABXProjects/4dLED.X/newmain4dLED_before dots.c: 263:                  
                                        if (no_spi_digit == 2)
  1397                           		movlw	2
  1398  0F09  3002               	xorwf	((_no_spi_digit)),w
  1399  0F0A  0671               	btfss	status,2
  1400  0F0B  1D03               	goto	u391
  1401  0F0C  2F0E               	goto	u390
  1402  0F0D  2F0F               u391:
  1403  0F0E                     	goto	l1662
  1404  0F0E  2F1B               u390:
  1405  0F0F                     	line	265
  1406                           	
  1407                           l1660:	
  1408  0F0F                     ;C:/Users/lexa/MPLABXProjects/4dLED.X/newmain4dLED_before dots.c: 264:                  
                                        {;C:/Users/lexa/MPLABXProjects/4dLED.X/newmain4dLED_before dots.c: 265:          
                                                    display(no_spi_counter);
  1409                           	movf	(_no_spi_counter),w
  1410  0F0F  0872               	movlb 0	; select bank0
  1411  0F10  0020               	movwf	(??_main+0)+0
  1412  0F11  00B2               	clrf	(??_main+0)+0+1
  1413  0F12  01B3               	movf	0+(??_main+0)+0,w
  1414  0F13  0832               	movwf	(display@x)
  1415  0F14  00B0               	movf	1+(??_main+0)+0,w
  1416  0F15  0833               	movwf	(display@x+1)
  1417  0F16  00B1               	fcall	_display
  1418  0F17  3180  20BC  318E   	line	266
  1419                           ;C:/Users/lexa/MPLABXProjects/4dLED.X/newmain4dLED_before dots.c: 266:                  
                                        }
  1420                           	goto	l1664
  1421  0F1A  2F1F               	line	267
  1422                           ;C:/Users/lexa/MPLABXProjects/4dLED.X/newmain4dLED_before dots.c: 267:                  
                                        else
  1423                           	
  1424                           l153:	
  1425  0F1B                     	line	269
  1426                           	
  1427                           l1662:	
  1428  0F1B                     ;C:/Users/lexa/MPLABXProjects/4dLED.X/newmain4dLED_before dots.c: 268:                  
                                        {;C:/Users/lexa/MPLABXProjects/4dLED.X/newmain4dLED_before dots.c: 269:          
                                                    display_dash();
  1429                           	fcall	_display_dash
  1430  0F1B  3186  26A4  318E   	goto	l1664
  1431  0F1E  2F1F               	line	270
  1432                           ;C:/Users/lexa/MPLABXProjects/4dLED.X/newmain4dLED_before dots.c: 270:                  
                                        }
  1433                           	
  1434                           l154:	
  1435  0F1F                     	line	271
  1436                           	
  1437                           l1664:	
  1438  0F1F                     ;C:/Users/lexa/MPLABXProjects/4dLED.X/newmain4dLED_before dots.c: 271:                  
                                        LATCbits.LATC5 = on;
  1439                           	rrf	(_on),w
  1440  0F1F  0C70               	movlb 2	; select bank2
  1441  0F20  0022               	skipc
  1442  0F21  1C03               	bcf	(270)^0100h,5	;volatile
  1443  0F22  128E               	skipnc
  1444  0F23  1803               	bsf	(270)^0100h,5	;volatile
  1445  0F24  168E               	line	272
  1446                           ;C:/Users/lexa/MPLABXProjects/4dLED.X/newmain4dLED_before dots.c: 272:                  
                                        break;
  1447                           	goto	l1714
  1448  0F25  2FF9               	line	273
  1449                           ;C:/Users/lexa/MPLABXProjects/4dLED.X/newmain4dLED_before dots.c: 273:                  
                                    case 3:
  1450                           	
  1451                           l155:	
  1452  0F26                     	line	274
  1453                           	
  1454                           l1666:	
  1455  0F26                     ;C:/Users/lexa/MPLABXProjects/4dLED.X/newmain4dLED_before dots.c: 274:                  
                                        if (no_spi_digit == 3)
  1456                           		movlw	3
  1457  0F26  3003               	xorwf	((_no_spi_digit)),w
  1458  0F27  0671               	btfss	status,2
  1459  0F28  1D03               	goto	u401
  1460  0F29  2F2B               	goto	u400
  1461  0F2A  2F2C               u401:
  1462  0F2B                     	goto	l1670
  1463  0F2B  2F38               u400:
  1464  0F2C                     	line	276
  1465                           	
  1466                           l1668:	
  1467  0F2C                     ;C:/Users/lexa/MPLABXProjects/4dLED.X/newmain4dLED_before dots.c: 275:                  
                                        {;C:/Users/lexa/MPLABXProjects/4dLED.X/newmain4dLED_before dots.c: 276:          
                                                    display(no_spi_counter);
  1468                           	movf	(_no_spi_counter),w
  1469  0F2C  0872               	movlb 0	; select bank0
  1470  0F2D  0020               	movwf	(??_main+0)+0
  1471  0F2E  00B2               	clrf	(??_main+0)+0+1
  1472  0F2F  01B3               	movf	0+(??_main+0)+0,w
  1473  0F30  0832               	movwf	(display@x)
  1474  0F31  00B0               	movf	1+(??_main+0)+0,w
  1475  0F32  0833               	movwf	(display@x+1)
  1476  0F33  00B1               	fcall	_display
  1477  0F34  3180  20BC  318E   	line	277
  1478                           ;C:/Users/lexa/MPLABXProjects/4dLED.X/newmain4dLED_before dots.c: 277:                  
                                        }
  1479                           	goto	l1672
  1480  0F37  2F3C               	line	278
  1481                           ;C:/Users/lexa/MPLABXProjects/4dLED.X/newmain4dLED_before dots.c: 278:                  
                                        else
  1482                           	
  1483                           l156:	
  1484  0F38                     	line	280
  1485                           	
  1486                           l1670:	
  1487  0F38                     ;C:/Users/lexa/MPLABXProjects/4dLED.X/newmain4dLED_before dots.c: 279:                  
                                        {;C:/Users/lexa/MPLABXProjects/4dLED.X/newmain4dLED_before dots.c: 280:          
                                                    display_dash();
  1488                           	fcall	_display_dash
  1489  0F38  3186  26A4  318E   	goto	l1672
  1490  0F3B  2F3C               	line	281
  1491                           ;C:/Users/lexa/MPLABXProjects/4dLED.X/newmain4dLED_before dots.c: 281:                  
                                        }
  1492                           	
  1493                           l157:	
  1494  0F3C                     	line	282
  1495                           	
  1496                           l1672:	
  1497  0F3C                     ;C:/Users/lexa/MPLABXProjects/4dLED.X/newmain4dLED_before dots.c: 282:                  
                                        LATBbits.LATB7 = on;
  1498                           	rrf	(_on),w
  1499  0F3C  0C70               	movlb 2	; select bank2
  1500  0F3D  0022               	skipc
  1501  0F3E  1C03               	bcf	(269)^0100h,7	;volatile
  1502  0F3F  138D               	skipnc
  1503  0F40  1803               	bsf	(269)^0100h,7	;volatile
  1504  0F41  178D               	line	283
  1505                           ;C:/Users/lexa/MPLABXProjects/4dLED.X/newmain4dLED_before dots.c: 283:                  
                                        break;
  1506                           	goto	l1714
  1507  0F42  2FF9               	line	284
  1508                           	
  1509                           l1674:	
  1510  0F43                     ;C:/Users/lexa/MPLABXProjects/4dLED.X/newmain4dLED_before dots.c: 284:                 }
                                 
  1511                           	goto	l1714
  1512  0F43  2FF9               	
  1513                           l144:	
  1514  0F44                     	
  1515                           l1676:	
  1516  0F44                     	movf	(_t),w
  1517  0F44  0875               	movlb 0	; select bank0
  1518  0F45  0020               	movwf	(??_main+0)+0
  1519  0F46  00B2               	clrf	(??_main+0)+0+1
  1520  0F47  01B3               	; Switch on 2 bytes has been partitioned into a top level switch of size 1, and 1 sub-s
                                 witches
  1521                           ; Switch size 1, requested type "space"
  1522                           ; Number of cases is 1, Range of values is 0 to 0
  1523                           ; switch strategies available:
  1524                           ; Name         Instructions Cycles
  1525                           ; simple_byte            4     3 (average)
  1526                           ; direct_byte            8     6 (fixed)
  1527                           ; jumptable            260     6 (fixed)
  1528                           ;	Chosen strategy is simple_byte
  1529                           
  1530                           	movf 1+(??_main+0)+0,w
  1531  0F48  0833               	opt asmopt_push
  1532                           	opt asmopt_off
  1533                           	xorlw	0^0	; case 0
  1534  0F49  3A00               	skipnz
  1535  0F4A  1903               	goto	l1828
  1536  0F4B  2F4D               	goto	l1714
  1537  0F4C  2FF9               	opt asmopt_pop
  1538                           	
  1539                           l1828:	
  1540  0F4D                     ; Switch size 1, requested type "space"
  1541                           ; Number of cases is 4, Range of values is 0 to 3
  1542                           ; switch strategies available:
  1543                           ; Name         Instructions Cycles
  1544                           ; simple_byte           13     7 (average)
  1545                           ; direct_byte           14     6 (fixed)
  1546                           ; jumptable            260     6 (fixed)
  1547                           ;	Chosen strategy is simple_byte
  1548                           
  1549                           	movf 0+(??_main+0)+0,w
  1550  0F4D  0832               	opt asmopt_push
  1551                           	opt asmopt_off
  1552                           	xorlw	0^0	; case 0
  1553  0F4E  3A00               	skipnz
  1554  0F4F  1903               	goto	l1642
  1555  0F50  2ED2               	xorlw	1^0	; case 1
  1556  0F51  3A01               	skipnz
  1557  0F52  1903               	goto	l1650
  1558  0F53  2EED               	xorlw	2^1	; case 2
  1559  0F54  3A03               	skipnz
  1560  0F55  1903               	goto	l1658
  1561  0F56  2F09               	xorlw	3^2	; case 3
  1562  0F57  3A01               	skipnz
  1563  0F58  1903               	goto	l1666
  1564  0F59  2F26               	goto	l1714
  1565  0F5A  2FF9               	opt asmopt_pop
  1566                           
  1567                           	
  1568                           l148:	
  1569  0F5B                     	line	285
  1570                           ;C:/Users/lexa/MPLABXProjects/4dLED.X/newmain4dLED_before dots.c: 285:             }
  1571                           	goto	l1714
  1572  0F5B  2FF9               	line	286
  1573                           ;C:/Users/lexa/MPLABXProjects/4dLED.X/newmain4dLED_before dots.c: 286:             else

  1574                           	
  1575                           l143:	
  1576  0F5C                     	line	288
  1577                           ;C:/Users/lexa/MPLABXProjects/4dLED.X/newmain4dLED_before dots.c: 287:             {;C:/
                                 Users/lexa/MPLABXProjects/4dLED.X/newmain4dLED_before dots.c: 288:                 switc
                                 h (t)
  1578                           	goto	l1712
  1579  0F5C  2FE1               	line	290
  1580                           ;C:/Users/lexa/MPLABXProjects/4dLED.X/newmain4dLED_before dots.c: 289:                 {
                                 ;C:/Users/lexa/MPLABXProjects/4dLED.X/newmain4dLED_before dots.c: 290:                  
                                    case 0:
  1581                           	
  1582                           l160:	
  1583  0F5D                     	line	291
  1584                           	
  1585                           l1678:	
  1586  0F5D                     ;C:/Users/lexa/MPLABXProjects/4dLED.X/newmain4dLED_before dots.c: 291:                  
                                        if (digit_error == 1) display(14);
  1587                           		decf	((_digit_error)),w
  1588  0F5D  0373               	btfss	status,2
  1589  0F5E  1D03               	goto	u411
  1590  0F5F  2F61               	goto	u410
  1591  0F60  2F62               u411:
  1592  0F61                     	goto	l1682
  1593  0F61  2F6A               u410:
  1594  0F62                     	
  1595                           l1680:	
  1596  0F62                     	movlw	0Eh
  1597  0F62  300E               	movwf	(display@x)
  1598  0F63  00B0               	movlw	0
  1599  0F64  3000               	movwf	((display@x))+1
  1600  0F65  00B1               	fcall	_display
  1601  0F66  3180  20BC  318E   	goto	l1684
  1602  0F69  2F76               	line	292
  1603                           ;C:/Users/lexa/MPLABXProjects/4dLED.X/newmain4dLED_before dots.c: 292:                  
                                        else display(digit1);
  1604                           	
  1605                           l161:	
  1606  0F6A                     	
  1607                           l1682:	
  1608  0F6A                     	movlb 0	; select bank0
  1609  0F6A  0020               	movf	(_digit1),w
  1610  0F6B  082F               	movwf	(??_main+0)+0
  1611  0F6C  00B2               	clrf	(??_main+0)+0+1
  1612  0F6D  01B3               	movf	0+(??_main+0)+0,w
  1613  0F6E  0832               	movwf	(display@x)
  1614  0F6F  00B0               	movf	1+(??_main+0)+0,w
  1615  0F70  0833               	movwf	(display@x+1)
  1616  0F71  00B1               	fcall	_display
  1617  0F72  3180  20BC  318E   	goto	l1684
  1618  0F75  2F76               	
  1619                           l162:	
  1620  0F76                     	line	293
  1621                           	
  1622                           l1684:	
  1623  0F76                     ;C:/Users/lexa/MPLABXProjects/4dLED.X/newmain4dLED_before dots.c: 293:                  
                                        LATCbits.LATC6 = on;
  1624                           	rrf	(_on),w
  1625  0F76  0C70               	movlb 2	; select bank2
  1626  0F77  0022               	skipc
  1627  0F78  1C03               	bcf	(270)^0100h,6	;volatile
  1628  0F79  130E               	skipnc
  1629  0F7A  1803               	bsf	(270)^0100h,6	;volatile
  1630  0F7B  170E               	line	294
  1631                           ;C:/Users/lexa/MPLABXProjects/4dLED.X/newmain4dLED_before dots.c: 294:                  
                                        break;
  1632                           	goto	l1714
  1633  0F7C  2FF9               	line	295
  1634                           ;C:/Users/lexa/MPLABXProjects/4dLED.X/newmain4dLED_before dots.c: 295:                  
                                    case 1:
  1635                           	
  1636                           l164:	
  1637  0F7D                     	line	296
  1638                           	
  1639                           l1686:	
  1640  0F7D                     ;C:/Users/lexa/MPLABXProjects/4dLED.X/newmain4dLED_before dots.c: 296:                  
                                        if (digit_error == 1) display(14);
  1641                           		decf	((_digit_error)),w
  1642  0F7D  0373               	btfss	status,2
  1643  0F7E  1D03               	goto	u421
  1644  0F7F  2F81               	goto	u420
  1645  0F80  2F82               u421:
  1646  0F81                     	goto	l1690
  1647  0F81  2F8B               u420:
  1648  0F82                     	
  1649                           l1688:	
  1650  0F82                     	movlw	0Eh
  1651  0F82  300E               	movlb 0	; select bank0
  1652  0F83  0020               	movwf	(display@x)
  1653  0F84  00B0               	movlw	0
  1654  0F85  3000               	movwf	((display@x))+1
  1655  0F86  00B1               	fcall	_display
  1656  0F87  3180  20BC  318E   	goto	l1692
  1657  0F8A  2F97               	line	297
  1658                           ;C:/Users/lexa/MPLABXProjects/4dLED.X/newmain4dLED_before dots.c: 297:                  
                                        else display(digit2);
  1659                           	
  1660                           l165:	
  1661  0F8B                     	
  1662                           l1690:	
  1663  0F8B                     	movlb 0	; select bank0
  1664  0F8B  0020               	movf	(_digit2),w
  1665  0F8C  082E               	movwf	(??_main+0)+0
  1666  0F8D  00B2               	clrf	(??_main+0)+0+1
  1667  0F8E  01B3               	movf	0+(??_main+0)+0,w
  1668  0F8F  0832               	movwf	(display@x)
  1669  0F90  00B0               	movf	1+(??_main+0)+0,w
  1670  0F91  0833               	movwf	(display@x+1)
  1671  0F92  00B1               	fcall	_display
  1672  0F93  3180  20BC  318E   	goto	l1692
  1673  0F96  2F97               	
  1674                           l166:	
  1675  0F97                     	line	298
  1676                           	
  1677                           l1692:	
  1678  0F97                     ;C:/Users/lexa/MPLABXProjects/4dLED.X/newmain4dLED_before dots.c: 298:                  
                                        LATCbits.LATC4 = on;
  1679                           	rrf	(_on),w
  1680  0F97  0C70               	movlb 2	; select bank2
  1681  0F98  0022               	skipc
  1682  0F99  1C03               	bcf	(270)^0100h,4	;volatile
  1683  0F9A  120E               	skipnc
  1684  0F9B  1803               	bsf	(270)^0100h,4	;volatile
  1685  0F9C  160E               	line	299
  1686                           ;C:/Users/lexa/MPLABXProjects/4dLED.X/newmain4dLED_before dots.c: 299:                  
                                        break;
  1687                           	goto	l1714
  1688  0F9D  2FF9               	line	300
  1689                           ;C:/Users/lexa/MPLABXProjects/4dLED.X/newmain4dLED_before dots.c: 300:                  
                                    case 2:
  1690                           	
  1691                           l167:	
  1692  0F9E                     	line	301
  1693                           	
  1694                           l1694:	
  1695  0F9E                     ;C:/Users/lexa/MPLABXProjects/4dLED.X/newmain4dLED_before dots.c: 301:                  
                                        if (digit_error == 1) display(14);
  1696                           		decf	((_digit_error)),w
  1697  0F9E  0373               	btfss	status,2
  1698  0F9F  1D03               	goto	u431
  1699  0FA0  2FA2               	goto	u430
  1700  0FA1  2FA3               u431:
  1701  0FA2                     	goto	l1698
  1702  0FA2  2FAC               u430:
  1703  0FA3                     	
  1704                           l1696:	
  1705  0FA3                     	movlw	0Eh
  1706  0FA3  300E               	movlb 0	; select bank0
  1707  0FA4  0020               	movwf	(display@x)
  1708  0FA5  00B0               	movlw	0
  1709  0FA6  3000               	movwf	((display@x))+1
  1710  0FA7  00B1               	fcall	_display
  1711  0FA8  3180  20BC  318E   	goto	l1700
  1712  0FAB  2FB8               	line	302
  1713                           ;C:/Users/lexa/MPLABXProjects/4dLED.X/newmain4dLED_before dots.c: 302:                  
                                        else display(digit3);
  1714                           	
  1715                           l168:	
  1716  0FAC                     	
  1717                           l1698:	
  1718  0FAC                     	movlb 0	; select bank0
  1719  0FAC  0020               	movf	(_digit3),w
  1720  0FAD  082D               	movwf	(??_main+0)+0
  1721  0FAE  00B2               	clrf	(??_main+0)+0+1
  1722  0FAF  01B3               	movf	0+(??_main+0)+0,w
  1723  0FB0  0832               	movwf	(display@x)
  1724  0FB1  00B0               	movf	1+(??_main+0)+0,w
  1725  0FB2  0833               	movwf	(display@x+1)
  1726  0FB3  00B1               	fcall	_display
  1727  0FB4  3180  20BC  318E   	goto	l1700
  1728  0FB7  2FB8               	
  1729                           l169:	
  1730  0FB8                     	line	303
  1731                           	
  1732                           l1700:	
  1733  0FB8                     ;C:/Users/lexa/MPLABXProjects/4dLED.X/newmain4dLED_before dots.c: 303:                  
                                        LATCbits.LATC5 = on;
  1734                           	rrf	(_on),w
  1735  0FB8  0C70               	movlb 2	; select bank2
  1736  0FB9  0022               	skipc
  1737  0FBA  1C03               	bcf	(270)^0100h,5	;volatile
  1738  0FBB  128E               	skipnc
  1739  0FBC  1803               	bsf	(270)^0100h,5	;volatile
  1740  0FBD  168E               	line	304
  1741                           ;C:/Users/lexa/MPLABXProjects/4dLED.X/newmain4dLED_before dots.c: 304:                  
                                        break;
  1742                           	goto	l1714
  1743  0FBE  2FF9               	line	305
  1744                           ;C:/Users/lexa/MPLABXProjects/4dLED.X/newmain4dLED_before dots.c: 305:                  
                                    case 3:
  1745                           	
  1746                           l170:	
  1747  0FBF                     	line	306
  1748                           	
  1749                           l1702:	
  1750  0FBF                     ;C:/Users/lexa/MPLABXProjects/4dLED.X/newmain4dLED_before dots.c: 306:                  
                                        if (digit_error == 1) display(14);
  1751                           		decf	((_digit_error)),w
  1752  0FBF  0373               	btfss	status,2
  1753  0FC0  1D03               	goto	u441
  1754  0FC1  2FC3               	goto	u440
  1755  0FC2  2FC4               u441:
  1756  0FC3                     	goto	l1706
  1757  0FC3  2FCD               u440:
  1758  0FC4                     	
  1759                           l1704:	
  1760  0FC4                     	movlw	0Eh
  1761  0FC4  300E               	movlb 0	; select bank0
  1762  0FC5  0020               	movwf	(display@x)
  1763  0FC6  00B0               	movlw	0
  1764  0FC7  3000               	movwf	((display@x))+1
  1765  0FC8  00B1               	fcall	_display
  1766  0FC9  3180  20BC  318E   	goto	l1708
  1767  0FCC  2FD9               	line	307
  1768                           ;C:/Users/lexa/MPLABXProjects/4dLED.X/newmain4dLED_before dots.c: 307:                  
                                        else display(digit4);
  1769                           	
  1770                           l171:	
  1771  0FCD                     	
  1772                           l1706:	
  1773  0FCD                     	movlb 0	; select bank0
  1774  0FCD  0020               	movf	(_digit4),w
  1775  0FCE  082C               	movwf	(??_main+0)+0
  1776  0FCF  00B2               	clrf	(??_main+0)+0+1
  1777  0FD0  01B3               	movf	0+(??_main+0)+0,w
  1778  0FD1  0832               	movwf	(display@x)
  1779  0FD2  00B0               	movf	1+(??_main+0)+0,w
  1780  0FD3  0833               	movwf	(display@x+1)
  1781  0FD4  00B1               	fcall	_display
  1782  0FD5  3180  20BC  318E   	goto	l1708
  1783  0FD8  2FD9               	
  1784                           l172:	
  1785  0FD9                     	line	308
  1786                           	
  1787                           l1708:	
  1788  0FD9                     ;C:/Users/lexa/MPLABXProjects/4dLED.X/newmain4dLED_before dots.c: 308:                  
                                        LATBbits.LATB7 = on;
  1789                           	rrf	(_on),w
  1790  0FD9  0C70               	movlb 2	; select bank2
  1791  0FDA  0022               	skipc
  1792  0FDB  1C03               	bcf	(269)^0100h,7	;volatile
  1793  0FDC  138D               	skipnc
  1794  0FDD  1803               	bsf	(269)^0100h,7	;volatile
  1795  0FDE  178D               	line	309
  1796                           ;C:/Users/lexa/MPLABXProjects/4dLED.X/newmain4dLED_before dots.c: 309:                  
                                        break;
  1797                           	goto	l1714
  1798  0FDF  2FF9               	line	310
  1799                           	
  1800                           l1710:	
  1801  0FE0                     ;C:/Users/lexa/MPLABXProjects/4dLED.X/newmain4dLED_before dots.c: 310:                 }
                                 
  1802                           	goto	l1714
  1803  0FE0  2FF9               	
  1804                           l159:	
  1805  0FE1                     	
  1806                           l1712:	
  1807  0FE1                     	movf	(_t),w
  1808  0FE1  0875               	movlb 0	; select bank0
  1809  0FE2  0020               	movwf	(??_main+0)+0
  1810  0FE3  00B2               	clrf	(??_main+0)+0+1
  1811  0FE4  01B3               	; Switch on 2 bytes has been partitioned into a top level switch of size 1, and 1 sub-s
                                 witches
  1812                           ; Switch size 1, requested type "space"
  1813                           ; Number of cases is 1, Range of values is 0 to 0
  1814                           ; switch strategies available:
  1815                           ; Name         Instructions Cycles
  1816                           ; simple_byte            4     3 (average)
  1817                           ; direct_byte            8     6 (fixed)
  1818                           ; jumptable            260     6 (fixed)
  1819                           ;	Chosen strategy is simple_byte
  1820                           
  1821                           	movf 1+(??_main+0)+0,w
  1822  0FE5  0833               	opt asmopt_push
  1823                           	opt asmopt_off
  1824                           	xorlw	0^0	; case 0
  1825  0FE6  3A00               	skipnz
  1826  0FE7  1903               	goto	l1830
  1827  0FE8  2FEA               	goto	l1714
  1828  0FE9  2FF9               	opt asmopt_pop
  1829                           	
  1830                           l1830:	
  1831  0FEA                     ; Switch size 1, requested type "space"
  1832                           ; Number of cases is 4, Range of values is 0 to 3
  1833                           ; switch strategies available:
  1834                           ; Name         Instructions Cycles
  1835                           ; simple_byte           13     7 (average)
  1836                           ; direct_byte           14     6 (fixed)
  1837                           ; jumptable            260     6 (fixed)
  1838                           ;	Chosen strategy is simple_byte
  1839                           
  1840                           	movf 0+(??_main+0)+0,w
  1841  0FEA  0832               	opt asmopt_push
  1842                           	opt asmopt_off
  1843                           	xorlw	0^0	; case 0
  1844  0FEB  3A00               	skipnz
  1845  0FEC  1903               	goto	l1678
  1846  0FED  2F5D               	xorlw	1^0	; case 1
  1847  0FEE  3A01               	skipnz
  1848  0FEF  1903               	goto	l1686
  1849  0FF0  2F7D               	xorlw	2^1	; case 2
  1850  0FF1  3A03               	skipnz
  1851  0FF2  1903               	goto	l1694
  1852  0FF3  2F9E               	xorlw	3^2	; case 3
  1853  0FF4  3A01               	skipnz
  1854  0FF5  1903               	goto	l1702
  1855  0FF6  2FBF               	goto	l1714
  1856  0FF7  2FF9               	opt asmopt_pop
  1857                           
  1858                           	
  1859                           l163:	
  1860  0FF8                     	goto	l1714
  1861  0FF8  2FF9               	line	311
  1862                           ;C:/Users/lexa/MPLABXProjects/4dLED.X/newmain4dLED_before dots.c: 311:             }
  1863                           	
  1864                           l158:	
  1865  0FF9                     	line	312
  1866                           	
  1867                           l1714:	
  1868  0FF9                     ;C:/Users/lexa/MPLABXProjects/4dLED.X/newmain4dLED_before dots.c: 312:             updat
                                 e = 0;
  1869                           	movlb 0	; select bank0
  1870  0FF9  0020               	clrf	(_update)
  1871  0FFA  01A9               	goto	l1636
  1872  0FFB  2EC6               	line	313
  1873                           ;C:/Users/lexa/MPLABXProjects/4dLED.X/newmain4dLED_before dots.c: 313:         }
  1874                           	
  1875                           l142:	
  1876  0FFC                     	goto	l1636
  1877  0FFC  2EC6               	line	315
  1878                           ;C:/Users/lexa/MPLABXProjects/4dLED.X/newmain4dLED_before dots.c: 315:     }
  1879                           	
  1880                           l173:	
  1881  0FFD                     	goto	l1636
  1882  0FFD  2EC6               	
  1883                           l174:	
  1884  0FFE                     	line	317
  1885                           	
  1886                           l175:	
  1887  0FFE                     	global	start
  1888                           	ljmp	start
  1889  0FFE  3180  28A8         	opt stack 0
  1890                           GLOBAL	__end_of_main
  1891                           	__end_of_main:
  1892  1000                     	signat	_main,89
  1893                           	global	_display_dash
  1894                           
  1895 ;; *************** function _display_dash *****************
  1896 ;; Defined at:
  1897 ;;		line 659 in file "C:/Users/lexa/MPLABXProjects/4dLED.X/newmain4dLED_before dots.c"
  1898 ;; Parameters:    Size  Location     Type
  1899 ;;		None
  1900 ;; Auto vars:     Size  Location     Type
  1901 ;;		None
  1902 ;; Return value:  Size  Location     Type
  1903 ;;                  1    wreg      void 
  1904 ;; Registers used:
  1905 ;;		wreg, status,0
  1906 ;; Tracked objects:
  1907 ;;		On entry : 0/0
  1908 ;;		On exit  : 0/0
  1909 ;;		Unchanged: 0/0
  1910 ;; Data sizes:     COMMON   BANK0   BANK1   BANK2
  1911 ;;      Params:         0       0       0       0
  1912 ;;      Locals:         0       0       0       0
  1913 ;;      Temps:          0       0       0       0
  1914 ;;      Totals:         0       0       0       0
  1915 ;;Total ram usage:        0 bytes
  1916 ;; Hardware stack levels used:    1
  1917 ;; Hardware stack levels required when called:    1
  1918 ;; This function calls:
  1919 ;;		Nothing
  1920 ;; This function is called by:
  1921 ;;		_main
  1922 ;; This function uses a non-reentrant model
  1923 ;;
  1924                           psect	text1,local,class=CODE,delta=2,merge=1,group=0
  1925                           	line	659
  1926                           global __ptext1
  1927                           __ptext1:	;psect for function _display_dash
  1928  06A4                     psect	text1
  1929                           	file	"C:/Users/lexa/MPLABXProjects/4dLED.X/newmain4dLED_before dots.c"
  1930                           	line	659
  1931                           	global	__size_of_display_dash
  1932                           	__size_of_display_dash	equ	__end_of_display_dash-_display_dash
  1933  0043                     	
  1934                           _display_dash:	
  1935  06A4                     ;incstack = 0
  1936                           	opt	stack 14
  1937                           ; Regs used in _display_dash: [wreg+status,0]
  1938                           	line	661
  1939                           	
  1940                           l1150:	
  1941  06A4                     ;C:/Users/lexa/MPLABXProjects/4dLED.X/newmain4dLED_before dots.c: 661:     LATAbits.LATA
                                 5 = off;
  1942                           	rrf	(_off),w
  1943  06A4  0C79               	movlb 2	; select bank2
  1944  06A5  0022               	skipc
  1945  06A6  1C03               	bcf	(268)^0100h,5	;volatile
  1946  06A7  128C               	skipnc
  1947  06A8  1803               	bsf	(268)^0100h,5	;volatile
  1948  06A9  168C               	line	662
  1949                           ;C:/Users/lexa/MPLABXProjects/4dLED.X/newmain4dLED_before dots.c: 662:     LATCbits.LATC
                                 2 = off;
  1950                           	rrf	(_off),w
  1951  06AA  0C79               	skipc
  1952  06AB  1C03               	bcf	(270)^0100h,2	;volatile
  1953  06AC  110E               	skipnc
  1954  06AD  1803               	bsf	(270)^0100h,2	;volatile
  1955  06AE  150E               	line	663
  1956                           ;C:/Users/lexa/MPLABXProjects/4dLED.X/newmain4dLED_before dots.c: 663:     LATAbits.LATA
                                 4 = off;
  1957                           	rrf	(_off),w
  1958  06AF  0C79               	skipc
  1959  06B0  1C03               	bcf	(268)^0100h,4	;volatile
  1960  06B1  120C               	skipnc
  1961  06B2  1803               	bsf	(268)^0100h,4	;volatile
  1962  06B3  160C               	line	664
  1963                           ;C:/Users/lexa/MPLABXProjects/4dLED.X/newmain4dLED_before dots.c: 664:     LATCbits.LATC
                                 1 = off;
  1964                           	rrf	(_off),w
  1965  06B4  0C79               	skipc
  1966  06B5  1C03               	bcf	(270)^0100h,1	;volatile
  1967  06B6  108E               	skipnc
  1968  06B7  1803               	bsf	(270)^0100h,1	;volatile
  1969  06B8  148E               	line	665
  1970                           ;C:/Users/lexa/MPLABXProjects/4dLED.X/newmain4dLED_before dots.c: 665:     LATAbits.LATA
                                 2 = off;
  1971                           	rrf	(_off),w
  1972  06B9  0C79               	skipc
  1973  06BA  1C03               	bcf	(268)^0100h,2	;volatile
  1974  06BB  110C               	skipnc
  1975  06BC  1803               	bsf	(268)^0100h,2	;volatile
  1976  06BD  150C               	line	666
  1977                           ;C:/Users/lexa/MPLABXProjects/4dLED.X/newmain4dLED_before dots.c: 666:     LATCbits.LATC
                                 0 = off;
  1978                           	rrf	(_off),w
  1979  06BE  0C79               	skipc
  1980  06BF  1C03               	bcf	(270)^0100h,0	;volatile
  1981  06C0  100E               	skipnc
  1982  06C1  1803               	bsf	(270)^0100h,0	;volatile
  1983  06C2  140E               	line	667
  1984                           ;C:/Users/lexa/MPLABXProjects/4dLED.X/newmain4dLED_before dots.c: 667:     LATBbits.LATB
                                 5 = off;
  1985                           	rrf	(_off),w
  1986  06C3  0C79               	skipc
  1987  06C4  1C03               	bcf	(269)^0100h,5	;volatile
  1988  06C5  128D               	skipnc
  1989  06C6  1803               	bsf	(269)^0100h,5	;volatile
  1990  06C7  168D               	line	668
  1991                           ;C:/Users/lexa/MPLABXProjects/4dLED.X/newmain4dLED_before dots.c: 668:     LATCbits.LATC
                                 3 = off;
  1992                           	rrf	(_off),w
  1993  06C8  0C79               	skipc
  1994  06C9  1C03               	bcf	(270)^0100h,3	;volatile
  1995  06CA  118E               	skipnc
  1996  06CB  1803               	bsf	(270)^0100h,3	;volatile
  1997  06CC  158E               	line	669
  1998                           ;C:/Users/lexa/MPLABXProjects/4dLED.X/newmain4dLED_before dots.c: 669:     LATCbits.LATC
                                 6 = off;
  1999                           	rrf	(_off),w
  2000  06CD  0C79               	skipc
  2001  06CE  1C03               	bcf	(270)^0100h,6	;volatile
  2002  06CF  130E               	skipnc
  2003  06D0  1803               	bsf	(270)^0100h,6	;volatile
  2004  06D1  170E               	line	670
  2005                           ;C:/Users/lexa/MPLABXProjects/4dLED.X/newmain4dLED_before dots.c: 670:     LATCbits.LATC
                                 4 = off;
  2006                           	rrf	(_off),w
  2007  06D2  0C79               	skipc
  2008  06D3  1C03               	bcf	(270)^0100h,4	;volatile
  2009  06D4  120E               	skipnc
  2010  06D5  1803               	bsf	(270)^0100h,4	;volatile
  2011  06D6  160E               	line	671
  2012                           ;C:/Users/lexa/MPLABXProjects/4dLED.X/newmain4dLED_before dots.c: 671:     LATCbits.LATC
                                 5 = off;
  2013                           	rrf	(_off),w
  2014  06D7  0C79               	skipc
  2015  06D8  1C03               	bcf	(270)^0100h,5	;volatile
  2016  06D9  128E               	skipnc
  2017  06DA  1803               	bsf	(270)^0100h,5	;volatile
  2018  06DB  168E               	line	672
  2019                           ;C:/Users/lexa/MPLABXProjects/4dLED.X/newmain4dLED_before dots.c: 672:     LATBbits.LATB
                                 7 = off;
  2020                           	rrf	(_off),w
  2021  06DC  0C79               	skipc
  2022  06DD  1C03               	bcf	(269)^0100h,7	;volatile
  2023  06DE  138D               	skipnc
  2024  06DF  1803               	bsf	(269)^0100h,7	;volatile
  2025  06E0  178D               	line	674
  2026                           ;C:/Users/lexa/MPLABXProjects/4dLED.X/newmain4dLED_before dots.c: 674:     LATBbits.LATB
                                 5 = on;
  2027                           	rrf	(_on),w
  2028  06E1  0C70               	skipc
  2029  06E2  1C03               	bcf	(269)^0100h,5	;volatile
  2030  06E3  128D               	skipnc
  2031  06E4  1803               	bsf	(269)^0100h,5	;volatile
  2032  06E5  168D               	line	676
  2033                           	
  2034                           l215:	
  2035  06E6                     	return
  2036  06E6  0008               	opt stack 0
  2037                           GLOBAL	__end_of_display_dash
  2038                           	__end_of_display_dash:
  2039  06E7                     	signat	_display_dash,89
  2040                           	global	_display
  2041                           
  2042 ;; *************** function _display *****************
  2043 ;; Defined at:
  2044 ;;		line 319 in file "C:/Users/lexa/MPLABXProjects/4dLED.X/newmain4dLED_before dots.c"
  2045 ;; Parameters:    Size  Location     Type
  2046 ;;  x               2    0[BANK0 ] unsigned int 
  2047 ;; Auto vars:     Size  Location     Type
  2048 ;;		None
  2049 ;; Return value:  Size  Location     Type
  2050 ;;                  1    wreg      void 
  2051 ;; Registers used:
  2052 ;;		wreg, fsr0l, fsr0h, status,2, status,0
  2053 ;; Tracked objects:
  2054 ;;		On entry : 0/0
  2055 ;;		On exit  : 0/0
  2056 ;;		Unchanged: 0/0
  2057 ;; Data sizes:     COMMON   BANK0   BANK1   BANK2
  2058 ;;      Params:         0       2       0       0
  2059 ;;      Locals:         0       0       0       0
  2060 ;;      Temps:          0       0       0       0
  2061 ;;      Totals:         0       2       0       0
  2062 ;;Total ram usage:        2 bytes
  2063 ;; Hardware stack levels used:    1
  2064 ;; Hardware stack levels required when called:    1
  2065 ;; This function calls:
  2066 ;;		Nothing
  2067 ;; This function is called by:
  2068 ;;		_main
  2069 ;; This function uses a non-reentrant model
  2070 ;;
  2071                           psect	text2,local,class=CODE,delta=2,merge=1,group=0
  2072                           	line	319
  2073                           global __ptext2
  2074                           __ptext2:	;psect for function _display
  2075  00BC                     psect	text2
  2076                           	file	"C:/Users/lexa/MPLABXProjects/4dLED.X/newmain4dLED_before dots.c"
  2077                           	line	319
  2078                           	global	__size_of_display
  2079                           	__size_of_display	equ	__end_of_display-_display
  2080  05E8                     	
  2081                           _display:	
  2082  00BC                     ;incstack = 0
  2083                           	opt	stack 14
  2084                           ; Regs used in _display: [wreg-fsr0h+status,2+status,0]
  2085                           	line	321
  2086                           	
  2087                           l1482:	
  2088  00BC                     ;C:/Users/lexa/MPLABXProjects/4dLED.X/newmain4dLED_before dots.c: 319: void display(unsi
                                 gned int x);C:/Users/lexa/MPLABXProjects/4dLED.X/newmain4dLED_before dots.c: 320: {;C:/U
                                 sers/lexa/MPLABXProjects/4dLED.X/newmain4dLED_before dots.c: 321:     LATAbits.LATA5 = o
                                 ff;
  2089                           	rrf	(_off),w
  2090  00BC  0C79               	movlb 2	; select bank2
  2091  00BD  0022               	skipc
  2092  00BE  1C03               	bcf	(268)^0100h,5	;volatile
  2093  00BF  128C               	skipnc
  2094  00C0  1803               	bsf	(268)^0100h,5	;volatile
  2095  00C1  168C               	line	322
  2096                           ;C:/Users/lexa/MPLABXProjects/4dLED.X/newmain4dLED_before dots.c: 322:     LATCbits.LATC
                                 2 = off;
  2097                           	rrf	(_off),w
  2098  00C2  0C79               	skipc
  2099  00C3  1C03               	bcf	(270)^0100h,2	;volatile
  2100  00C4  110E               	skipnc
  2101  00C5  1803               	bsf	(270)^0100h,2	;volatile
  2102  00C6  150E               	line	323
  2103                           ;C:/Users/lexa/MPLABXProjects/4dLED.X/newmain4dLED_before dots.c: 323:     LATAbits.LATA
                                 4 = off;
  2104                           	rrf	(_off),w
  2105  00C7  0C79               	skipc
  2106  00C8  1C03               	bcf	(268)^0100h,4	;volatile
  2107  00C9  120C               	skipnc
  2108  00CA  1803               	bsf	(268)^0100h,4	;volatile
  2109  00CB  160C               	line	324
  2110                           ;C:/Users/lexa/MPLABXProjects/4dLED.X/newmain4dLED_before dots.c: 324:     LATCbits.LATC
                                 1 = off;
  2111                           	rrf	(_off),w
  2112  00CC  0C79               	skipc
  2113  00CD  1C03               	bcf	(270)^0100h,1	;volatile
  2114  00CE  108E               	skipnc
  2115  00CF  1803               	bsf	(270)^0100h,1	;volatile
  2116  00D0  148E               	line	325
  2117                           ;C:/Users/lexa/MPLABXProjects/4dLED.X/newmain4dLED_before dots.c: 325:     LATAbits.LATA
                                 2 = off;
  2118                           	rrf	(_off),w
  2119  00D1  0C79               	skipc
  2120  00D2  1C03               	bcf	(268)^0100h,2	;volatile
  2121  00D3  110C               	skipnc
  2122  00D4  1803               	bsf	(268)^0100h,2	;volatile
  2123  00D5  150C               	line	326
  2124                           ;C:/Users/lexa/MPLABXProjects/4dLED.X/newmain4dLED_before dots.c: 326:     LATCbits.LATC
                                 0 = off;
  2125                           	rrf	(_off),w
  2126  00D6  0C79               	skipc
  2127  00D7  1C03               	bcf	(270)^0100h,0	;volatile
  2128  00D8  100E               	skipnc
  2129  00D9  1803               	bsf	(270)^0100h,0	;volatile
  2130  00DA  140E               	line	327
  2131                           ;C:/Users/lexa/MPLABXProjects/4dLED.X/newmain4dLED_before dots.c: 327:     LATBbits.LATB
                                 5 = off;
  2132                           	rrf	(_off),w
  2133  00DB  0C79               	skipc
  2134  00DC  1C03               	bcf	(269)^0100h,5	;volatile
  2135  00DD  128D               	skipnc
  2136  00DE  1803               	bsf	(269)^0100h,5	;volatile
  2137  00DF  168D               	line	328
  2138                           ;C:/Users/lexa/MPLABXProjects/4dLED.X/newmain4dLED_before dots.c: 328:     LATCbits.LATC
                                 3 = off;
  2139                           	rrf	(_off),w
  2140  00E0  0C79               	skipc
  2141  00E1  1C03               	bcf	(270)^0100h,3	;volatile
  2142  00E2  118E               	skipnc
  2143  00E3  1803               	bsf	(270)^0100h,3	;volatile
  2144  00E4  158E               	line	329
  2145                           ;C:/Users/lexa/MPLABXProjects/4dLED.X/newmain4dLED_before dots.c: 329:     LATCbits.LATC
                                 6 = off;
  2146                           	rrf	(_off),w
  2147  00E5  0C79               	skipc
  2148  00E6  1C03               	bcf	(270)^0100h,6	;volatile
  2149  00E7  130E               	skipnc
  2150  00E8  1803               	bsf	(270)^0100h,6	;volatile
  2151  00E9  170E               	line	330
  2152                           ;C:/Users/lexa/MPLABXProjects/4dLED.X/newmain4dLED_before dots.c: 330:     LATCbits.LATC
                                 4 = off;
  2153                           	rrf	(_off),w
  2154  00EA  0C79               	skipc
  2155  00EB  1C03               	bcf	(270)^0100h,4	;volatile
  2156  00EC  120E               	skipnc
  2157  00ED  1803               	bsf	(270)^0100h,4	;volatile
  2158  00EE  160E               	line	331
  2159                           ;C:/Users/lexa/MPLABXProjects/4dLED.X/newmain4dLED_before dots.c: 331:     LATCbits.LATC
                                 5 = off;
  2160                           	rrf	(_off),w
  2161  00EF  0C79               	skipc
  2162  00F0  1C03               	bcf	(270)^0100h,5	;volatile
  2163  00F1  128E               	skipnc
  2164  00F2  1803               	bsf	(270)^0100h,5	;volatile
  2165  00F3  168E               	line	332
  2166                           ;C:/Users/lexa/MPLABXProjects/4dLED.X/newmain4dLED_before dots.c: 332:     LATBbits.LATB
                                 7 = off;
  2167                           	rrf	(_off),w
  2168  00F4  0C79               	skipc
  2169  00F5  1C03               	bcf	(269)^0100h,7	;volatile
  2170  00F6  138D               	skipnc
  2171  00F7  1803               	bsf	(269)^0100h,7	;volatile
  2172  00F8  178D               	line	334
  2173                           ;C:/Users/lexa/MPLABXProjects/4dLED.X/newmain4dLED_before dots.c: 334:     switch (x)
  2174                           	goto	l1550
  2175  00F9  2E3B               	line	336
  2176                           ;C:/Users/lexa/MPLABXProjects/4dLED.X/newmain4dLED_before dots.c: 335:     {;C:/Users/le
                                 xa/MPLABXProjects/4dLED.X/newmain4dLED_before dots.c: 336:         case 0:
  2177                           	
  2178                           l179:	
  2179  00FA                     	line	337
  2180                           	
  2181                           l1484:	
  2182  00FA                     ;C:/Users/lexa/MPLABXProjects/4dLED.X/newmain4dLED_before dots.c: 337:             LATAb
                                 its.LATA5 = on;
  2183                           	rrf	(_on),w
  2184  00FA  0C70               	movlb 2	; select bank2
  2185  00FB  0022               	skipc
  2186  00FC  1C03               	bcf	(268)^0100h,5	;volatile
  2187  00FD  128C               	skipnc
  2188  00FE  1803               	bsf	(268)^0100h,5	;volatile
  2189  00FF  168C               	line	338
  2190                           ;C:/Users/lexa/MPLABXProjects/4dLED.X/newmain4dLED_before dots.c: 338:             LATCb
                                 its.LATC2 = on;
  2191                           	rrf	(_on),w
  2192  0100  0C70               	skipc
  2193  0101  1C03               	bcf	(270)^0100h,2	;volatile
  2194  0102  110E               	skipnc
  2195  0103  1803               	bsf	(270)^0100h,2	;volatile
  2196  0104  150E               	line	339
  2197                           ;C:/Users/lexa/MPLABXProjects/4dLED.X/newmain4dLED_before dots.c: 339:             LATAb
                                 its.LATA4 = on;
  2198                           	rrf	(_on),w
  2199  0105  0C70               	skipc
  2200  0106  1C03               	bcf	(268)^0100h,4	;volatile
  2201  0107  120C               	skipnc
  2202  0108  1803               	bsf	(268)^0100h,4	;volatile
  2203  0109  160C               	line	340
  2204                           ;C:/Users/lexa/MPLABXProjects/4dLED.X/newmain4dLED_before dots.c: 340:             LATCb
                                 its.LATC1 = on;
  2205                           	rrf	(_on),w
  2206  010A  0C70               	skipc
  2207  010B  1C03               	bcf	(270)^0100h,1	;volatile
  2208  010C  108E               	skipnc
  2209  010D  1803               	bsf	(270)^0100h,1	;volatile
  2210  010E  148E               	line	341
  2211                           ;C:/Users/lexa/MPLABXProjects/4dLED.X/newmain4dLED_before dots.c: 341:             LATAb
                                 its.LATA2 = on;
  2212                           	rrf	(_on),w
  2213  010F  0C70               	skipc
  2214  0110  1C03               	bcf	(268)^0100h,2	;volatile
  2215  0111  110C               	skipnc
  2216  0112  1803               	bsf	(268)^0100h,2	;volatile
  2217  0113  150C               	line	342
  2218                           ;C:/Users/lexa/MPLABXProjects/4dLED.X/newmain4dLED_before dots.c: 342:             LATCb
                                 its.LATC0 = on;
  2219                           	rrf	(_on),w
  2220  0114  0C70               	skipc
  2221  0115  1C03               	bcf	(270)^0100h,0	;volatile
  2222  0116  100E               	skipnc
  2223  0117  1803               	bsf	(270)^0100h,0	;volatile
  2224  0118  140E               	line	343
  2225                           ;C:/Users/lexa/MPLABXProjects/4dLED.X/newmain4dLED_before dots.c: 343:             LATBb
                                 its.LATB5 = off;
  2226                           	rrf	(_off),w
  2227  0119  0C79               	skipc
  2228  011A  1C03               	bcf	(269)^0100h,5	;volatile
  2229  011B  128D               	skipnc
  2230  011C  1803               	bsf	(269)^0100h,5	;volatile
  2231  011D  168D               	line	344
  2232                           ;C:/Users/lexa/MPLABXProjects/4dLED.X/newmain4dLED_before dots.c: 344:             LATCb
                                 its.LATC3 = off;
  2233                           	rrf	(_off),w
  2234  011E  0C79               	skipc
  2235  011F  1C03               	bcf	(270)^0100h,3	;volatile
  2236  0120  118E               	skipnc
  2237  0121  1803               	bsf	(270)^0100h,3	;volatile
  2238  0122  158E               	line	345
  2239                           ;C:/Users/lexa/MPLABXProjects/4dLED.X/newmain4dLED_before dots.c: 345:             break
                                 ;
  2240                           	goto	l212
  2241  0123  2EA3               	line	346
  2242                           ;C:/Users/lexa/MPLABXProjects/4dLED.X/newmain4dLED_before dots.c: 346:         case 1:
  2243                           	
  2244                           l181:	
  2245  0124                     	line	347
  2246                           	
  2247                           l1486:	
  2248  0124                     ;C:/Users/lexa/MPLABXProjects/4dLED.X/newmain4dLED_before dots.c: 347:             LATAb
                                 its.LATA5 = off;
  2249                           	rrf	(_off),w
  2250  0124  0C79               	movlb 2	; select bank2
  2251  0125  0022               	skipc
  2252  0126  1C03               	bcf	(268)^0100h,5	;volatile
  2253  0127  128C               	skipnc
  2254  0128  1803               	bsf	(268)^0100h,5	;volatile
  2255  0129  168C               	line	348
  2256                           ;C:/Users/lexa/MPLABXProjects/4dLED.X/newmain4dLED_before dots.c: 348:             LATCb
                                 its.LATC2 = on;
  2257                           	rrf	(_on),w
  2258  012A  0C70               	skipc
  2259  012B  1C03               	bcf	(270)^0100h,2	;volatile
  2260  012C  110E               	skipnc
  2261  012D  1803               	bsf	(270)^0100h,2	;volatile
  2262  012E  150E               	line	349
  2263                           ;C:/Users/lexa/MPLABXProjects/4dLED.X/newmain4dLED_before dots.c: 349:             LATAb
                                 its.LATA4 = on;
  2264                           	rrf	(_on),w
  2265  012F  0C70               	skipc
  2266  0130  1C03               	bcf	(268)^0100h,4	;volatile
  2267  0131  120C               	skipnc
  2268  0132  1803               	bsf	(268)^0100h,4	;volatile
  2269  0133  160C               	line	350
  2270                           ;C:/Users/lexa/MPLABXProjects/4dLED.X/newmain4dLED_before dots.c: 350:             LATCb
                                 its.LATC1 = off;
  2271                           	rrf	(_off),w
  2272  0134  0C79               	skipc
  2273  0135  1C03               	bcf	(270)^0100h,1	;volatile
  2274  0136  108E               	skipnc
  2275  0137  1803               	bsf	(270)^0100h,1	;volatile
  2276  0138  148E               	line	351
  2277                           ;C:/Users/lexa/MPLABXProjects/4dLED.X/newmain4dLED_before dots.c: 351:             LATAb
                                 its.LATA2 = off;
  2278                           	rrf	(_off),w
  2279  0139  0C79               	skipc
  2280  013A  1C03               	bcf	(268)^0100h,2	;volatile
  2281  013B  110C               	skipnc
  2282  013C  1803               	bsf	(268)^0100h,2	;volatile
  2283  013D  150C               	line	352
  2284                           ;C:/Users/lexa/MPLABXProjects/4dLED.X/newmain4dLED_before dots.c: 352:             LATCb
                                 its.LATC0 = off;
  2285                           	rrf	(_off),w
  2286  013E  0C79               	skipc
  2287  013F  1C03               	bcf	(270)^0100h,0	;volatile
  2288  0140  100E               	skipnc
  2289  0141  1803               	bsf	(270)^0100h,0	;volatile
  2290  0142  140E               	line	353
  2291                           ;C:/Users/lexa/MPLABXProjects/4dLED.X/newmain4dLED_before dots.c: 353:             LATBb
                                 its.LATB5 = off;
  2292                           	rrf	(_off),w
  2293  0143  0C79               	skipc
  2294  0144  1C03               	bcf	(269)^0100h,5	;volatile
  2295  0145  128D               	skipnc
  2296  0146  1803               	bsf	(269)^0100h,5	;volatile
  2297  0147  168D               	line	354
  2298                           ;C:/Users/lexa/MPLABXProjects/4dLED.X/newmain4dLED_before dots.c: 354:             LATCb
                                 its.LATC3 = off;
  2299                           	rrf	(_off),w
  2300  0148  0C79               	skipc
  2301  0149  1C03               	bcf	(270)^0100h,3	;volatile
  2302  014A  118E               	skipnc
  2303  014B  1803               	bsf	(270)^0100h,3	;volatile
  2304  014C  158E               	line	355
  2305                           ;C:/Users/lexa/MPLABXProjects/4dLED.X/newmain4dLED_before dots.c: 355:             break
                                 ;
  2306                           	goto	l212
  2307  014D  2EA3               	line	356
  2308                           ;C:/Users/lexa/MPLABXProjects/4dLED.X/newmain4dLED_before dots.c: 356:         case 2:
  2309                           	
  2310                           l182:	
  2311  014E                     	line	357
  2312                           	
  2313                           l1488:	
  2314  014E                     ;C:/Users/lexa/MPLABXProjects/4dLED.X/newmain4dLED_before dots.c: 357:             LATAb
                                 its.LATA5 = on;
  2315                           	rrf	(_on),w
  2316  014E  0C70               	movlb 2	; select bank2
  2317  014F  0022               	skipc
  2318  0150  1C03               	bcf	(268)^0100h,5	;volatile
  2319  0151  128C               	skipnc
  2320  0152  1803               	bsf	(268)^0100h,5	;volatile
  2321  0153  168C               	line	358
  2322                           ;C:/Users/lexa/MPLABXProjects/4dLED.X/newmain4dLED_before dots.c: 358:             LATCb
                                 its.LATC2 = on;
  2323                           	rrf	(_on),w
  2324  0154  0C70               	skipc
  2325  0155  1C03               	bcf	(270)^0100h,2	;volatile
  2326  0156  110E               	skipnc
  2327  0157  1803               	bsf	(270)^0100h,2	;volatile
  2328  0158  150E               	line	359
  2329                           ;C:/Users/lexa/MPLABXProjects/4dLED.X/newmain4dLED_before dots.c: 359:             LATAb
                                 its.LATA4 = off;
  2330                           	rrf	(_off),w
  2331  0159  0C79               	skipc
  2332  015A  1C03               	bcf	(268)^0100h,4	;volatile
  2333  015B  120C               	skipnc
  2334  015C  1803               	bsf	(268)^0100h,4	;volatile
  2335  015D  160C               	line	360
  2336                           ;C:/Users/lexa/MPLABXProjects/4dLED.X/newmain4dLED_before dots.c: 360:             LATCb
                                 its.LATC1 = on;
  2337                           	rrf	(_on),w
  2338  015E  0C70               	skipc
  2339  015F  1C03               	bcf	(270)^0100h,1	;volatile
  2340  0160  108E               	skipnc
  2341  0161  1803               	bsf	(270)^0100h,1	;volatile
  2342  0162  148E               	line	361
  2343                           ;C:/Users/lexa/MPLABXProjects/4dLED.X/newmain4dLED_before dots.c: 361:             LATAb
                                 its.LATA2 = on;
  2344                           	rrf	(_on),w
  2345  0163  0C70               	skipc
  2346  0164  1C03               	bcf	(268)^0100h,2	;volatile
  2347  0165  110C               	skipnc
  2348  0166  1803               	bsf	(268)^0100h,2	;volatile
  2349  0167  150C               	line	362
  2350                           ;C:/Users/lexa/MPLABXProjects/4dLED.X/newmain4dLED_before dots.c: 362:             LATCb
                                 its.LATC0 = off;
  2351                           	rrf	(_off),w
  2352  0168  0C79               	skipc
  2353  0169  1C03               	bcf	(270)^0100h,0	;volatile
  2354  016A  100E               	skipnc
  2355  016B  1803               	bsf	(270)^0100h,0	;volatile
  2356  016C  140E               	line	363
  2357                           ;C:/Users/lexa/MPLABXProjects/4dLED.X/newmain4dLED_before dots.c: 363:             LATBb
                                 its.LATB5 = on;
  2358                           	rrf	(_on),w
  2359  016D  0C70               	skipc
  2360  016E  1C03               	bcf	(269)^0100h,5	;volatile
  2361  016F  128D               	skipnc
  2362  0170  1803               	bsf	(269)^0100h,5	;volatile
  2363  0171  168D               	line	364
  2364                           ;C:/Users/lexa/MPLABXProjects/4dLED.X/newmain4dLED_before dots.c: 364:             LATCb
                                 its.LATC3 = off;
  2365                           	rrf	(_off),w
  2366  0172  0C79               	skipc
  2367  0173  1C03               	bcf	(270)^0100h,3	;volatile
  2368  0174  118E               	skipnc
  2369  0175  1803               	bsf	(270)^0100h,3	;volatile
  2370  0176  158E               	line	365
  2371                           ;C:/Users/lexa/MPLABXProjects/4dLED.X/newmain4dLED_before dots.c: 365:             break
                                 ;
  2372                           	goto	l212
  2373  0177  2EA3               	line	366
  2374                           ;C:/Users/lexa/MPLABXProjects/4dLED.X/newmain4dLED_before dots.c: 366:         case 3:
  2375                           	
  2376                           l183:	
  2377  0178                     	line	367
  2378                           	
  2379                           l1490:	
  2380  0178                     ;C:/Users/lexa/MPLABXProjects/4dLED.X/newmain4dLED_before dots.c: 367:             LATAb
                                 its.LATA5 = on;
  2381                           	rrf	(_on),w
  2382  0178  0C70               	movlb 2	; select bank2
  2383  0179  0022               	skipc
  2384  017A  1C03               	bcf	(268)^0100h,5	;volatile
  2385  017B  128C               	skipnc
  2386  017C  1803               	bsf	(268)^0100h,5	;volatile
  2387  017D  168C               	line	368
  2388                           ;C:/Users/lexa/MPLABXProjects/4dLED.X/newmain4dLED_before dots.c: 368:             LATCb
                                 its.LATC2 = on;
  2389                           	rrf	(_on),w
  2390  017E  0C70               	skipc
  2391  017F  1C03               	bcf	(270)^0100h,2	;volatile
  2392  0180  110E               	skipnc
  2393  0181  1803               	bsf	(270)^0100h,2	;volatile
  2394  0182  150E               	line	369
  2395                           ;C:/Users/lexa/MPLABXProjects/4dLED.X/newmain4dLED_before dots.c: 369:             LATAb
                                 its.LATA4 = on;
  2396                           	rrf	(_on),w
  2397  0183  0C70               	skipc
  2398  0184  1C03               	bcf	(268)^0100h,4	;volatile
  2399  0185  120C               	skipnc
  2400  0186  1803               	bsf	(268)^0100h,4	;volatile
  2401  0187  160C               	line	370
  2402                           ;C:/Users/lexa/MPLABXProjects/4dLED.X/newmain4dLED_before dots.c: 370:             LATCb
                                 its.LATC1 = on;
  2403                           	rrf	(_on),w
  2404  0188  0C70               	skipc
  2405  0189  1C03               	bcf	(270)^0100h,1	;volatile
  2406  018A  108E               	skipnc
  2407  018B  1803               	bsf	(270)^0100h,1	;volatile
  2408  018C  148E               	line	371
  2409                           ;C:/Users/lexa/MPLABXProjects/4dLED.X/newmain4dLED_before dots.c: 371:             LATAb
                                 its.LATA2 = off;
  2410                           	rrf	(_off),w
  2411  018D  0C79               	skipc
  2412  018E  1C03               	bcf	(268)^0100h,2	;volatile
  2413  018F  110C               	skipnc
  2414  0190  1803               	bsf	(268)^0100h,2	;volatile
  2415  0191  150C               	line	372
  2416                           ;C:/Users/lexa/MPLABXProjects/4dLED.X/newmain4dLED_before dots.c: 372:             LATCb
                                 its.LATC0 = off;
  2417                           	rrf	(_off),w
  2418  0192  0C79               	skipc
  2419  0193  1C03               	bcf	(270)^0100h,0	;volatile
  2420  0194  100E               	skipnc
  2421  0195  1803               	bsf	(270)^0100h,0	;volatile
  2422  0196  140E               	line	373
  2423                           ;C:/Users/lexa/MPLABXProjects/4dLED.X/newmain4dLED_before dots.c: 373:             LATBb
                                 its.LATB5 = on;
  2424                           	rrf	(_on),w
  2425  0197  0C70               	skipc
  2426  0198  1C03               	bcf	(269)^0100h,5	;volatile
  2427  0199  128D               	skipnc
  2428  019A  1803               	bsf	(269)^0100h,5	;volatile
  2429  019B  168D               	line	374
  2430                           ;C:/Users/lexa/MPLABXProjects/4dLED.X/newmain4dLED_before dots.c: 374:             LATCb
                                 its.LATC3 = off;
  2431                           	rrf	(_off),w
  2432  019C  0C79               	skipc
  2433  019D  1C03               	bcf	(270)^0100h,3	;volatile
  2434  019E  118E               	skipnc
  2435  019F  1803               	bsf	(270)^0100h,3	;volatile
  2436  01A0  158E               	line	375
  2437                           ;C:/Users/lexa/MPLABXProjects/4dLED.X/newmain4dLED_before dots.c: 375:             break
                                 ;
  2438                           	goto	l212
  2439  01A1  2EA3               	line	376
  2440                           ;C:/Users/lexa/MPLABXProjects/4dLED.X/newmain4dLED_before dots.c: 376:         case 4:
  2441                           	
  2442                           l184:	
  2443  01A2                     	line	377
  2444                           	
  2445                           l1492:	
  2446  01A2                     ;C:/Users/lexa/MPLABXProjects/4dLED.X/newmain4dLED_before dots.c: 377:             LATAb
                                 its.LATA5 = off;
  2447                           	rrf	(_off),w
  2448  01A2  0C79               	movlb 2	; select bank2
  2449  01A3  0022               	skipc
  2450  01A4  1C03               	bcf	(268)^0100h,5	;volatile
  2451  01A5  128C               	skipnc
  2452  01A6  1803               	bsf	(268)^0100h,5	;volatile
  2453  01A7  168C               	line	378
  2454                           ;C:/Users/lexa/MPLABXProjects/4dLED.X/newmain4dLED_before dots.c: 378:             LATCb
                                 its.LATC2 = on;
  2455                           	rrf	(_on),w
  2456  01A8  0C70               	skipc
  2457  01A9  1C03               	bcf	(270)^0100h,2	;volatile
  2458  01AA  110E               	skipnc
  2459  01AB  1803               	bsf	(270)^0100h,2	;volatile
  2460  01AC  150E               	line	379
  2461                           ;C:/Users/lexa/MPLABXProjects/4dLED.X/newmain4dLED_before dots.c: 379:             LATAb
                                 its.LATA4 = on;
  2462                           	rrf	(_on),w
  2463  01AD  0C70               	skipc
  2464  01AE  1C03               	bcf	(268)^0100h,4	;volatile
  2465  01AF  120C               	skipnc
  2466  01B0  1803               	bsf	(268)^0100h,4	;volatile
  2467  01B1  160C               	line	380
  2468                           ;C:/Users/lexa/MPLABXProjects/4dLED.X/newmain4dLED_before dots.c: 380:             LATCb
                                 its.LATC1 = off;
  2469                           	rrf	(_off),w
  2470  01B2  0C79               	skipc
  2471  01B3  1C03               	bcf	(270)^0100h,1	;volatile
  2472  01B4  108E               	skipnc
  2473  01B5  1803               	bsf	(270)^0100h,1	;volatile
  2474  01B6  148E               	line	381
  2475                           ;C:/Users/lexa/MPLABXProjects/4dLED.X/newmain4dLED_before dots.c: 381:             LATAb
                                 its.LATA2 = off;
  2476                           	rrf	(_off),w
  2477  01B7  0C79               	skipc
  2478  01B8  1C03               	bcf	(268)^0100h,2	;volatile
  2479  01B9  110C               	skipnc
  2480  01BA  1803               	bsf	(268)^0100h,2	;volatile
  2481  01BB  150C               	line	382
  2482                           ;C:/Users/lexa/MPLABXProjects/4dLED.X/newmain4dLED_before dots.c: 382:             LATCb
                                 its.LATC0 = on;
  2483                           	rrf	(_on),w
  2484  01BC  0C70               	skipc
  2485  01BD  1C03               	bcf	(270)^0100h,0	;volatile
  2486  01BE  100E               	skipnc
  2487  01BF  1803               	bsf	(270)^0100h,0	;volatile
  2488  01C0  140E               	line	383
  2489                           ;C:/Users/lexa/MPLABXProjects/4dLED.X/newmain4dLED_before dots.c: 383:             LATBb
                                 its.LATB5 = on;
  2490                           	rrf	(_on),w
  2491  01C1  0C70               	skipc
  2492  01C2  1C03               	bcf	(269)^0100h,5	;volatile
  2493  01C3  128D               	skipnc
  2494  01C4  1803               	bsf	(269)^0100h,5	;volatile
  2495  01C5  168D               	line	384
  2496                           ;C:/Users/lexa/MPLABXProjects/4dLED.X/newmain4dLED_before dots.c: 384:             LATCb
                                 its.LATC3 = off;
  2497                           	rrf	(_off),w
  2498  01C6  0C79               	skipc
  2499  01C7  1C03               	bcf	(270)^0100h,3	;volatile
  2500  01C8  118E               	skipnc
  2501  01C9  1803               	bsf	(270)^0100h,3	;volatile
  2502  01CA  158E               	line	385
  2503                           ;C:/Users/lexa/MPLABXProjects/4dLED.X/newmain4dLED_before dots.c: 385:             break
                                 ;
  2504                           	goto	l212
  2505  01CB  2EA3               	line	386
  2506                           ;C:/Users/lexa/MPLABXProjects/4dLED.X/newmain4dLED_before dots.c: 386:         case 5:
  2507                           	
  2508                           l185:	
  2509  01CC                     	line	387
  2510                           	
  2511                           l1494:	
  2512  01CC                     ;C:/Users/lexa/MPLABXProjects/4dLED.X/newmain4dLED_before dots.c: 387:             LATAb
                                 its.LATA5 = on;
  2513                           	rrf	(_on),w
  2514  01CC  0C70               	movlb 2	; select bank2
  2515  01CD  0022               	skipc
  2516  01CE  1C03               	bcf	(268)^0100h,5	;volatile
  2517  01CF  128C               	skipnc
  2518  01D0  1803               	bsf	(268)^0100h,5	;volatile
  2519  01D1  168C               	line	388
  2520                           ;C:/Users/lexa/MPLABXProjects/4dLED.X/newmain4dLED_before dots.c: 388:             LATCb
                                 its.LATC2 = off;
  2521                           	rrf	(_off),w
  2522  01D2  0C79               	skipc
  2523  01D3  1C03               	bcf	(270)^0100h,2	;volatile
  2524  01D4  110E               	skipnc
  2525  01D5  1803               	bsf	(270)^0100h,2	;volatile
  2526  01D6  150E               	line	389
  2527                           ;C:/Users/lexa/MPLABXProjects/4dLED.X/newmain4dLED_before dots.c: 389:             LATAb
                                 its.LATA4 = on;
  2528                           	rrf	(_on),w
  2529  01D7  0C70               	skipc
  2530  01D8  1C03               	bcf	(268)^0100h,4	;volatile
  2531  01D9  120C               	skipnc
  2532  01DA  1803               	bsf	(268)^0100h,4	;volatile
  2533  01DB  160C               	line	390
  2534                           ;C:/Users/lexa/MPLABXProjects/4dLED.X/newmain4dLED_before dots.c: 390:             LATCb
                                 its.LATC1 = on;
  2535                           	rrf	(_on),w
  2536  01DC  0C70               	skipc
  2537  01DD  1C03               	bcf	(270)^0100h,1	;volatile
  2538  01DE  108E               	skipnc
  2539  01DF  1803               	bsf	(270)^0100h,1	;volatile
  2540  01E0  148E               	line	391
  2541                           ;C:/Users/lexa/MPLABXProjects/4dLED.X/newmain4dLED_before dots.c: 391:             LATAb
                                 its.LATA2 = off;
  2542                           	rrf	(_off),w
  2543  01E1  0C79               	skipc
  2544  01E2  1C03               	bcf	(268)^0100h,2	;volatile
  2545  01E3  110C               	skipnc
  2546  01E4  1803               	bsf	(268)^0100h,2	;volatile
  2547  01E5  150C               	line	392
  2548                           ;C:/Users/lexa/MPLABXProjects/4dLED.X/newmain4dLED_before dots.c: 392:             LATCb
                                 its.LATC0 = on;
  2549                           	rrf	(_on),w
  2550  01E6  0C70               	skipc
  2551  01E7  1C03               	bcf	(270)^0100h,0	;volatile
  2552  01E8  100E               	skipnc
  2553  01E9  1803               	bsf	(270)^0100h,0	;volatile
  2554  01EA  140E               	line	393
  2555                           ;C:/Users/lexa/MPLABXProjects/4dLED.X/newmain4dLED_before dots.c: 393:             LATBb
                                 its.LATB5 = on;
  2556                           	rrf	(_on),w
  2557  01EB  0C70               	skipc
  2558  01EC  1C03               	bcf	(269)^0100h,5	;volatile
  2559  01ED  128D               	skipnc
  2560  01EE  1803               	bsf	(269)^0100h,5	;volatile
  2561  01EF  168D               	line	394
  2562                           ;C:/Users/lexa/MPLABXProjects/4dLED.X/newmain4dLED_before dots.c: 394:             LATCb
                                 its.LATC3 = off;
  2563                           	rrf	(_off),w
  2564  01F0  0C79               	skipc
  2565  01F1  1C03               	bcf	(270)^0100h,3	;volatile
  2566  01F2  118E               	skipnc
  2567  01F3  1803               	bsf	(270)^0100h,3	;volatile
  2568  01F4  158E               	line	395
  2569                           ;C:/Users/lexa/MPLABXProjects/4dLED.X/newmain4dLED_before dots.c: 395:             break
                                 ;
  2570                           	goto	l212
  2571  01F5  2EA3               	line	396
  2572                           ;C:/Users/lexa/MPLABXProjects/4dLED.X/newmain4dLED_before dots.c: 396:         case 6:
  2573                           	
  2574                           l186:	
  2575  01F6                     	line	397
  2576                           	
  2577                           l1496:	
  2578  01F6                     ;C:/Users/lexa/MPLABXProjects/4dLED.X/newmain4dLED_before dots.c: 397:             LATAb
                                 its.LATA5 = on;
  2579                           	rrf	(_on),w
  2580  01F6  0C70               	movlb 2	; select bank2
  2581  01F7  0022               	skipc
  2582  01F8  1C03               	bcf	(268)^0100h,5	;volatile
  2583  01F9  128C               	skipnc
  2584  01FA  1803               	bsf	(268)^0100h,5	;volatile
  2585  01FB  168C               	line	398
  2586                           ;C:/Users/lexa/MPLABXProjects/4dLED.X/newmain4dLED_before dots.c: 398:             LATCb
                                 its.LATC2 = off;
  2587                           	rrf	(_off),w
  2588  01FC  0C79               	skipc
  2589  01FD  1C03               	bcf	(270)^0100h,2	;volatile
  2590  01FE  110E               	skipnc
  2591  01FF  1803               	bsf	(270)^0100h,2	;volatile
  2592  0200  150E               	line	399
  2593                           ;C:/Users/lexa/MPLABXProjects/4dLED.X/newmain4dLED_before dots.c: 399:             LATAb
                                 its.LATA4 = on;
  2594                           	rrf	(_on),w
  2595  0201  0C70               	skipc
  2596  0202  1C03               	bcf	(268)^0100h,4	;volatile
  2597  0203  120C               	skipnc
  2598  0204  1803               	bsf	(268)^0100h,4	;volatile
  2599  0205  160C               	line	400
  2600                           ;C:/Users/lexa/MPLABXProjects/4dLED.X/newmain4dLED_before dots.c: 400:             LATCb
                                 its.LATC1 = on;
  2601                           	rrf	(_on),w
  2602  0206  0C70               	skipc
  2603  0207  1C03               	bcf	(270)^0100h,1	;volatile
  2604  0208  108E               	skipnc
  2605  0209  1803               	bsf	(270)^0100h,1	;volatile
  2606  020A  148E               	line	401
  2607                           ;C:/Users/lexa/MPLABXProjects/4dLED.X/newmain4dLED_before dots.c: 401:             LATAb
                                 its.LATA2 = on;
  2608                           	rrf	(_on),w
  2609  020B  0C70               	skipc
  2610  020C  1C03               	bcf	(268)^0100h,2	;volatile
  2611  020D  110C               	skipnc
  2612  020E  1803               	bsf	(268)^0100h,2	;volatile
  2613  020F  150C               	line	402
  2614                           ;C:/Users/lexa/MPLABXProjects/4dLED.X/newmain4dLED_before dots.c: 402:             LATCb
                                 its.LATC0 = on;
  2615                           	rrf	(_on),w
  2616  0210  0C70               	skipc
  2617  0211  1C03               	bcf	(270)^0100h,0	;volatile
  2618  0212  100E               	skipnc
  2619  0213  1803               	bsf	(270)^0100h,0	;volatile
  2620  0214  140E               	line	403
  2621                           ;C:/Users/lexa/MPLABXProjects/4dLED.X/newmain4dLED_before dots.c: 403:             LATBb
                                 its.LATB5 = on;
  2622                           	rrf	(_on),w
  2623  0215  0C70               	skipc
  2624  0216  1C03               	bcf	(269)^0100h,5	;volatile
  2625  0217  128D               	skipnc
  2626  0218  1803               	bsf	(269)^0100h,5	;volatile
  2627  0219  168D               	line	404
  2628                           ;C:/Users/lexa/MPLABXProjects/4dLED.X/newmain4dLED_before dots.c: 404:             LATCb
                                 its.LATC3 = off;
  2629                           	rrf	(_off),w
  2630  021A  0C79               	skipc
  2631  021B  1C03               	bcf	(270)^0100h,3	;volatile
  2632  021C  118E               	skipnc
  2633  021D  1803               	bsf	(270)^0100h,3	;volatile
  2634  021E  158E               	line	405
  2635                           ;C:/Users/lexa/MPLABXProjects/4dLED.X/newmain4dLED_before dots.c: 405:             break
                                 ;
  2636                           	goto	l212
  2637  021F  2EA3               	line	406
  2638                           ;C:/Users/lexa/MPLABXProjects/4dLED.X/newmain4dLED_before dots.c: 406:         case 7:
  2639                           	
  2640                           l187:	
  2641  0220                     	line	407
  2642                           	
  2643                           l1498:	
  2644  0220                     ;C:/Users/lexa/MPLABXProjects/4dLED.X/newmain4dLED_before dots.c: 407:             LATAb
                                 its.LATA5 = on;
  2645                           	rrf	(_on),w
  2646  0220  0C70               	movlb 2	; select bank2
  2647  0221  0022               	skipc
  2648  0222  1C03               	bcf	(268)^0100h,5	;volatile
  2649  0223  128C               	skipnc
  2650  0224  1803               	bsf	(268)^0100h,5	;volatile
  2651  0225  168C               	line	408
  2652                           ;C:/Users/lexa/MPLABXProjects/4dLED.X/newmain4dLED_before dots.c: 408:             LATCb
                                 its.LATC2 = on;
  2653                           	rrf	(_on),w
  2654  0226  0C70               	skipc
  2655  0227  1C03               	bcf	(270)^0100h,2	;volatile
  2656  0228  110E               	skipnc
  2657  0229  1803               	bsf	(270)^0100h,2	;volatile
  2658  022A  150E               	line	409
  2659                           ;C:/Users/lexa/MPLABXProjects/4dLED.X/newmain4dLED_before dots.c: 409:             LATAb
                                 its.LATA4 = on;
  2660                           	rrf	(_on),w
  2661  022B  0C70               	skipc
  2662  022C  1C03               	bcf	(268)^0100h,4	;volatile
  2663  022D  120C               	skipnc
  2664  022E  1803               	bsf	(268)^0100h,4	;volatile
  2665  022F  160C               	line	410
  2666                           ;C:/Users/lexa/MPLABXProjects/4dLED.X/newmain4dLED_before dots.c: 410:             LATCb
                                 its.LATC1 = off;
  2667                           	rrf	(_off),w
  2668  0230  0C79               	skipc
  2669  0231  1C03               	bcf	(270)^0100h,1	;volatile
  2670  0232  108E               	skipnc
  2671  0233  1803               	bsf	(270)^0100h,1	;volatile
  2672  0234  148E               	line	411
  2673                           ;C:/Users/lexa/MPLABXProjects/4dLED.X/newmain4dLED_before dots.c: 411:             LATAb
                                 its.LATA2 = off;
  2674                           	rrf	(_off),w
  2675  0235  0C79               	skipc
  2676  0236  1C03               	bcf	(268)^0100h,2	;volatile
  2677  0237  110C               	skipnc
  2678  0238  1803               	bsf	(268)^0100h,2	;volatile
  2679  0239  150C               	line	412
  2680                           ;C:/Users/lexa/MPLABXProjects/4dLED.X/newmain4dLED_before dots.c: 412:             LATCb
                                 its.LATC0 = off;
  2681                           	rrf	(_off),w
  2682  023A  0C79               	skipc
  2683  023B  1C03               	bcf	(270)^0100h,0	;volatile
  2684  023C  100E               	skipnc
  2685  023D  1803               	bsf	(270)^0100h,0	;volatile
  2686  023E  140E               	line	413
  2687                           ;C:/Users/lexa/MPLABXProjects/4dLED.X/newmain4dLED_before dots.c: 413:             LATBb
                                 its.LATB5 = off;
  2688                           	rrf	(_off),w
  2689  023F  0C79               	skipc
  2690  0240  1C03               	bcf	(269)^0100h,5	;volatile
  2691  0241  128D               	skipnc
  2692  0242  1803               	bsf	(269)^0100h,5	;volatile
  2693  0243  168D               	line	414
  2694                           ;C:/Users/lexa/MPLABXProjects/4dLED.X/newmain4dLED_before dots.c: 414:             LATCb
                                 its.LATC3 = off;
  2695                           	rrf	(_off),w
  2696  0244  0C79               	skipc
  2697  0245  1C03               	bcf	(270)^0100h,3	;volatile
  2698  0246  118E               	skipnc
  2699  0247  1803               	bsf	(270)^0100h,3	;volatile
  2700  0248  158E               	line	415
  2701                           ;C:/Users/lexa/MPLABXProjects/4dLED.X/newmain4dLED_before dots.c: 415:             break
                                 ;
  2702                           	goto	l212
  2703  0249  2EA3               	line	416
  2704                           ;C:/Users/lexa/MPLABXProjects/4dLED.X/newmain4dLED_before dots.c: 416:         case 8:
  2705                           	
  2706                           l188:	
  2707  024A                     	line	417
  2708                           	
  2709                           l1500:	
  2710  024A                     ;C:/Users/lexa/MPLABXProjects/4dLED.X/newmain4dLED_before dots.c: 417:             LATAb
                                 its.LATA5 = on;
  2711                           	rrf	(_on),w
  2712  024A  0C70               	movlb 2	; select bank2
  2713  024B  0022               	skipc
  2714  024C  1C03               	bcf	(268)^0100h,5	;volatile
  2715  024D  128C               	skipnc
  2716  024E  1803               	bsf	(268)^0100h,5	;volatile
  2717  024F  168C               	line	418
  2718                           ;C:/Users/lexa/MPLABXProjects/4dLED.X/newmain4dLED_before dots.c: 418:             LATCb
                                 its.LATC2 = on;
  2719                           	rrf	(_on),w
  2720  0250  0C70               	skipc
  2721  0251  1C03               	bcf	(270)^0100h,2	;volatile
  2722  0252  110E               	skipnc
  2723  0253  1803               	bsf	(270)^0100h,2	;volatile
  2724  0254  150E               	line	419
  2725                           ;C:/Users/lexa/MPLABXProjects/4dLED.X/newmain4dLED_before dots.c: 419:             LATAb
                                 its.LATA4 = on;
  2726                           	rrf	(_on),w
  2727  0255  0C70               	skipc
  2728  0256  1C03               	bcf	(268)^0100h,4	;volatile
  2729  0257  120C               	skipnc
  2730  0258  1803               	bsf	(268)^0100h,4	;volatile
  2731  0259  160C               	line	420
  2732                           ;C:/Users/lexa/MPLABXProjects/4dLED.X/newmain4dLED_before dots.c: 420:             LATCb
                                 its.LATC1 = on;
  2733                           	rrf	(_on),w
  2734  025A  0C70               	skipc
  2735  025B  1C03               	bcf	(270)^0100h,1	;volatile
  2736  025C  108E               	skipnc
  2737  025D  1803               	bsf	(270)^0100h,1	;volatile
  2738  025E  148E               	line	421
  2739                           ;C:/Users/lexa/MPLABXProjects/4dLED.X/newmain4dLED_before dots.c: 421:             LATAb
                                 its.LATA2 = on;
  2740                           	rrf	(_on),w
  2741  025F  0C70               	skipc
  2742  0260  1C03               	bcf	(268)^0100h,2	;volatile
  2743  0261  110C               	skipnc
  2744  0262  1803               	bsf	(268)^0100h,2	;volatile
  2745  0263  150C               	line	422
  2746                           ;C:/Users/lexa/MPLABXProjects/4dLED.X/newmain4dLED_before dots.c: 422:             LATCb
                                 its.LATC0 = on;
  2747                           	rrf	(_on),w
  2748  0264  0C70               	skipc
  2749  0265  1C03               	bcf	(270)^0100h,0	;volatile
  2750  0266  100E               	skipnc
  2751  0267  1803               	bsf	(270)^0100h,0	;volatile
  2752  0268  140E               	line	423
  2753                           ;C:/Users/lexa/MPLABXProjects/4dLED.X/newmain4dLED_before dots.c: 423:             LATBb
                                 its.LATB5 = on;
  2754                           	rrf	(_on),w
  2755  0269  0C70               	skipc
  2756  026A  1C03               	bcf	(269)^0100h,5	;volatile
  2757  026B  128D               	skipnc
  2758  026C  1803               	bsf	(269)^0100h,5	;volatile
  2759  026D  168D               	line	424
  2760                           ;C:/Users/lexa/MPLABXProjects/4dLED.X/newmain4dLED_before dots.c: 424:             LATCb
                                 its.LATC3 = off;
  2761                           	rrf	(_off),w
  2762  026E  0C79               	skipc
  2763  026F  1C03               	bcf	(270)^0100h,3	;volatile
  2764  0270  118E               	skipnc
  2765  0271  1803               	bsf	(270)^0100h,3	;volatile
  2766  0272  158E               	line	425
  2767                           ;C:/Users/lexa/MPLABXProjects/4dLED.X/newmain4dLED_before dots.c: 425:             break
                                 ;
  2768                           	goto	l212
  2769  0273  2EA3               	line	426
  2770                           ;C:/Users/lexa/MPLABXProjects/4dLED.X/newmain4dLED_before dots.c: 426:         case 9:
  2771                           	
  2772                           l189:	
  2773  0274                     	line	427
  2774                           	
  2775                           l1502:	
  2776  0274                     ;C:/Users/lexa/MPLABXProjects/4dLED.X/newmain4dLED_before dots.c: 427:             LATAb
                                 its.LATA5 = on;
  2777                           	rrf	(_on),w
  2778  0274  0C70               	movlb 2	; select bank2
  2779  0275  0022               	skipc
  2780  0276  1C03               	bcf	(268)^0100h,5	;volatile
  2781  0277  128C               	skipnc
  2782  0278  1803               	bsf	(268)^0100h,5	;volatile
  2783  0279  168C               	line	428
  2784                           ;C:/Users/lexa/MPLABXProjects/4dLED.X/newmain4dLED_before dots.c: 428:             LATCb
                                 its.LATC2 = on;
  2785                           	rrf	(_on),w
  2786  027A  0C70               	skipc
  2787  027B  1C03               	bcf	(270)^0100h,2	;volatile
  2788  027C  110E               	skipnc
  2789  027D  1803               	bsf	(270)^0100h,2	;volatile
  2790  027E  150E               	line	429
  2791                           ;C:/Users/lexa/MPLABXProjects/4dLED.X/newmain4dLED_before dots.c: 429:             LATAb
                                 its.LATA4 = on;
  2792                           	rrf	(_on),w
  2793  027F  0C70               	skipc
  2794  0280  1C03               	bcf	(268)^0100h,4	;volatile
  2795  0281  120C               	skipnc
  2796  0282  1803               	bsf	(268)^0100h,4	;volatile
  2797  0283  160C               	line	430
  2798                           ;C:/Users/lexa/MPLABXProjects/4dLED.X/newmain4dLED_before dots.c: 430:             LATCb
                                 its.LATC1 = on;
  2799                           	rrf	(_on),w
  2800  0284  0C70               	skipc
  2801  0285  1C03               	bcf	(270)^0100h,1	;volatile
  2802  0286  108E               	skipnc
  2803  0287  1803               	bsf	(270)^0100h,1	;volatile
  2804  0288  148E               	line	431
  2805                           ;C:/Users/lexa/MPLABXProjects/4dLED.X/newmain4dLED_before dots.c: 431:             LATAb
                                 its.LATA2 = off;
  2806                           	rrf	(_off),w
  2807  0289  0C79               	skipc
  2808  028A  1C03               	bcf	(268)^0100h,2	;volatile
  2809  028B  110C               	skipnc
  2810  028C  1803               	bsf	(268)^0100h,2	;volatile
  2811  028D  150C               	line	432
  2812                           ;C:/Users/lexa/MPLABXProjects/4dLED.X/newmain4dLED_before dots.c: 432:             LATCb
                                 its.LATC0 = on;
  2813                           	rrf	(_on),w
  2814  028E  0C70               	skipc
  2815  028F  1C03               	bcf	(270)^0100h,0	;volatile
  2816  0290  100E               	skipnc
  2817  0291  1803               	bsf	(270)^0100h,0	;volatile
  2818  0292  140E               	line	433
  2819                           ;C:/Users/lexa/MPLABXProjects/4dLED.X/newmain4dLED_before dots.c: 433:             LATBb
                                 its.LATB5 = on;
  2820                           	rrf	(_on),w
  2821  0293  0C70               	skipc
  2822  0294  1C03               	bcf	(269)^0100h,5	;volatile
  2823  0295  128D               	skipnc
  2824  0296  1803               	bsf	(269)^0100h,5	;volatile
  2825  0297  168D               	line	434
  2826                           ;C:/Users/lexa/MPLABXProjects/4dLED.X/newmain4dLED_before dots.c: 434:             LATCb
                                 its.LATC3 = off;
  2827                           	rrf	(_off),w
  2828  0298  0C79               	skipc
  2829  0299  1C03               	bcf	(270)^0100h,3	;volatile
  2830  029A  118E               	skipnc
  2831  029B  1803               	bsf	(270)^0100h,3	;volatile
  2832  029C  158E               	line	435
  2833                           ;C:/Users/lexa/MPLABXProjects/4dLED.X/newmain4dLED_before dots.c: 435:             break
                                 ;
  2834                           	goto	l212
  2835  029D  2EA3               	line	436
  2836                           ;C:/Users/lexa/MPLABXProjects/4dLED.X/newmain4dLED_before dots.c: 436:         case 10:

  2837                           	
  2838                           l190:	
  2839  029E                     	line	437
  2840                           	
  2841                           l1504:	
  2842  029E                     ;C:/Users/lexa/MPLABXProjects/4dLED.X/newmain4dLED_before dots.c: 437:             LATAb
                                 its.LATA5 = on;
  2843                           	rrf	(_on),w
  2844  029E  0C70               	movlb 2	; select bank2
  2845  029F  0022               	skipc
  2846  02A0  1C03               	bcf	(268)^0100h,5	;volatile
  2847  02A1  128C               	skipnc
  2848  02A2  1803               	bsf	(268)^0100h,5	;volatile
  2849  02A3  168C               	line	438
  2850                           ;C:/Users/lexa/MPLABXProjects/4dLED.X/newmain4dLED_before dots.c: 438:             LATCb
                                 its.LATC2 = on;
  2851                           	rrf	(_on),w
  2852  02A4  0C70               	skipc
  2853  02A5  1C03               	bcf	(270)^0100h,2	;volatile
  2854  02A6  110E               	skipnc
  2855  02A7  1803               	bsf	(270)^0100h,2	;volatile
  2856  02A8  150E               	line	439
  2857                           ;C:/Users/lexa/MPLABXProjects/4dLED.X/newmain4dLED_before dots.c: 439:             LATAb
                                 its.LATA4 = on;
  2858                           	rrf	(_on),w
  2859  02A9  0C70               	skipc
  2860  02AA  1C03               	bcf	(268)^0100h,4	;volatile
  2861  02AB  120C               	skipnc
  2862  02AC  1803               	bsf	(268)^0100h,4	;volatile
  2863  02AD  160C               	line	440
  2864                           ;C:/Users/lexa/MPLABXProjects/4dLED.X/newmain4dLED_before dots.c: 440:             LATCb
                                 its.LATC1 = off;
  2865                           	rrf	(_off),w
  2866  02AE  0C79               	skipc
  2867  02AF  1C03               	bcf	(270)^0100h,1	;volatile
  2868  02B0  108E               	skipnc
  2869  02B1  1803               	bsf	(270)^0100h,1	;volatile
  2870  02B2  148E               	line	441
  2871                           ;C:/Users/lexa/MPLABXProjects/4dLED.X/newmain4dLED_before dots.c: 441:             LATAb
                                 its.LATA2 = on;
  2872                           	rrf	(_on),w
  2873  02B3  0C70               	skipc
  2874  02B4  1C03               	bcf	(268)^0100h,2	;volatile
  2875  02B5  110C               	skipnc
  2876  02B6  1803               	bsf	(268)^0100h,2	;volatile
  2877  02B7  150C               	line	442
  2878                           ;C:/Users/lexa/MPLABXProjects/4dLED.X/newmain4dLED_before dots.c: 442:             LATCb
                                 its.LATC0 = on;
  2879                           	rrf	(_on),w
  2880  02B8  0C70               	skipc
  2881  02B9  1C03               	bcf	(270)^0100h,0	;volatile
  2882  02BA  100E               	skipnc
  2883  02BB  1803               	bsf	(270)^0100h,0	;volatile
  2884  02BC  140E               	line	443
  2885                           ;C:/Users/lexa/MPLABXProjects/4dLED.X/newmain4dLED_before dots.c: 443:             LATBb
                                 its.LATB5 = on;
  2886                           	rrf	(_on),w
  2887  02BD  0C70               	skipc
  2888  02BE  1C03               	bcf	(269)^0100h,5	;volatile
  2889  02BF  128D               	skipnc
  2890  02C0  1803               	bsf	(269)^0100h,5	;volatile
  2891  02C1  168D               	line	444
  2892                           ;C:/Users/lexa/MPLABXProjects/4dLED.X/newmain4dLED_before dots.c: 444:             LATCb
                                 its.LATC3 = off;
  2893                           	rrf	(_off),w
  2894  02C2  0C79               	skipc
  2895  02C3  1C03               	bcf	(270)^0100h,3	;volatile
  2896  02C4  118E               	skipnc
  2897  02C5  1803               	bsf	(270)^0100h,3	;volatile
  2898  02C6  158E               	line	445
  2899                           ;C:/Users/lexa/MPLABXProjects/4dLED.X/newmain4dLED_before dots.c: 445:             break
                                 ;
  2900                           	goto	l212
  2901  02C7  2EA3               	line	446
  2902                           ;C:/Users/lexa/MPLABXProjects/4dLED.X/newmain4dLED_before dots.c: 446:         case 11:

  2903                           	
  2904                           l191:	
  2905  02C8                     	line	447
  2906                           	
  2907                           l1506:	
  2908  02C8                     ;C:/Users/lexa/MPLABXProjects/4dLED.X/newmain4dLED_before dots.c: 447:             LATAb
                                 its.LATA5 = off;
  2909                           	rrf	(_off),w
  2910  02C8  0C79               	movlb 2	; select bank2
  2911  02C9  0022               	skipc
  2912  02CA  1C03               	bcf	(268)^0100h,5	;volatile
  2913  02CB  128C               	skipnc
  2914  02CC  1803               	bsf	(268)^0100h,5	;volatile
  2915  02CD  168C               	line	448
  2916                           ;C:/Users/lexa/MPLABXProjects/4dLED.X/newmain4dLED_before dots.c: 448:             LATCb
                                 its.LATC2 = off;
  2917                           	rrf	(_off),w
  2918  02CE  0C79               	skipc
  2919  02CF  1C03               	bcf	(270)^0100h,2	;volatile
  2920  02D0  110E               	skipnc
  2921  02D1  1803               	bsf	(270)^0100h,2	;volatile
  2922  02D2  150E               	line	449
  2923                           ;C:/Users/lexa/MPLABXProjects/4dLED.X/newmain4dLED_before dots.c: 449:             LATAb
                                 its.LATA4 = on;
  2924                           	rrf	(_on),w
  2925  02D3  0C70               	skipc
  2926  02D4  1C03               	bcf	(268)^0100h,4	;volatile
  2927  02D5  120C               	skipnc
  2928  02D6  1803               	bsf	(268)^0100h,4	;volatile
  2929  02D7  160C               	line	450
  2930                           ;C:/Users/lexa/MPLABXProjects/4dLED.X/newmain4dLED_before dots.c: 450:             LATCb
                                 its.LATC1 = on;
  2931                           	rrf	(_on),w
  2932  02D8  0C70               	skipc
  2933  02D9  1C03               	bcf	(270)^0100h,1	;volatile
  2934  02DA  108E               	skipnc
  2935  02DB  1803               	bsf	(270)^0100h,1	;volatile
  2936  02DC  148E               	line	451
  2937                           ;C:/Users/lexa/MPLABXProjects/4dLED.X/newmain4dLED_before dots.c: 451:             LATAb
                                 its.LATA2 = on;
  2938                           	rrf	(_on),w
  2939  02DD  0C70               	skipc
  2940  02DE  1C03               	bcf	(268)^0100h,2	;volatile
  2941  02DF  110C               	skipnc
  2942  02E0  1803               	bsf	(268)^0100h,2	;volatile
  2943  02E1  150C               	line	452
  2944                           ;C:/Users/lexa/MPLABXProjects/4dLED.X/newmain4dLED_before dots.c: 452:             LATCb
                                 its.LATC0 = on;
  2945                           	rrf	(_on),w
  2946  02E2  0C70               	skipc
  2947  02E3  1C03               	bcf	(270)^0100h,0	;volatile
  2948  02E4  100E               	skipnc
  2949  02E5  1803               	bsf	(270)^0100h,0	;volatile
  2950  02E6  140E               	line	453
  2951                           ;C:/Users/lexa/MPLABXProjects/4dLED.X/newmain4dLED_before dots.c: 453:             LATBb
                                 its.LATB5 = on;
  2952                           	rrf	(_on),w
  2953  02E7  0C70               	skipc
  2954  02E8  1C03               	bcf	(269)^0100h,5	;volatile
  2955  02E9  128D               	skipnc
  2956  02EA  1803               	bsf	(269)^0100h,5	;volatile
  2957  02EB  168D               	line	454
  2958                           ;C:/Users/lexa/MPLABXProjects/4dLED.X/newmain4dLED_before dots.c: 454:             LATCb
                                 its.LATC3 = off;
  2959                           	rrf	(_off),w
  2960  02EC  0C79               	skipc
  2961  02ED  1C03               	bcf	(270)^0100h,3	;volatile
  2962  02EE  118E               	skipnc
  2963  02EF  1803               	bsf	(270)^0100h,3	;volatile
  2964  02F0  158E               	line	455
  2965                           ;C:/Users/lexa/MPLABXProjects/4dLED.X/newmain4dLED_before dots.c: 455:             break
                                 ;
  2966                           	goto	l212
  2967  02F1  2EA3               	line	456
  2968                           ;C:/Users/lexa/MPLABXProjects/4dLED.X/newmain4dLED_before dots.c: 456:         case 12:

  2969                           	
  2970                           l192:	
  2971  02F2                     	line	457
  2972                           	
  2973                           l1508:	
  2974  02F2                     ;C:/Users/lexa/MPLABXProjects/4dLED.X/newmain4dLED_before dots.c: 457:             LATAb
                                 its.LATA5 = on;
  2975                           	rrf	(_on),w
  2976  02F2  0C70               	movlb 2	; select bank2
  2977  02F3  0022               	skipc
  2978  02F4  1C03               	bcf	(268)^0100h,5	;volatile
  2979  02F5  128C               	skipnc
  2980  02F6  1803               	bsf	(268)^0100h,5	;volatile
  2981  02F7  168C               	line	458
  2982                           ;C:/Users/lexa/MPLABXProjects/4dLED.X/newmain4dLED_before dots.c: 458:             LATCb
                                 its.LATC2 = off;
  2983                           	rrf	(_off),w
  2984  02F8  0C79               	skipc
  2985  02F9  1C03               	bcf	(270)^0100h,2	;volatile
  2986  02FA  110E               	skipnc
  2987  02FB  1803               	bsf	(270)^0100h,2	;volatile
  2988  02FC  150E               	line	459
  2989                           ;C:/Users/lexa/MPLABXProjects/4dLED.X/newmain4dLED_before dots.c: 459:             LATAb
                                 its.LATA4 = off;
  2990                           	rrf	(_off),w
  2991  02FD  0C79               	skipc
  2992  02FE  1C03               	bcf	(268)^0100h,4	;volatile
  2993  02FF  120C               	skipnc
  2994  0300  1803               	bsf	(268)^0100h,4	;volatile
  2995  0301  160C               	line	460
  2996                           ;C:/Users/lexa/MPLABXProjects/4dLED.X/newmain4dLED_before dots.c: 460:             LATCb
                                 its.LATC1 = on;
  2997                           	rrf	(_on),w
  2998  0302  0C70               	skipc
  2999  0303  1C03               	bcf	(270)^0100h,1	;volatile
  3000  0304  108E               	skipnc
  3001  0305  1803               	bsf	(270)^0100h,1	;volatile
  3002  0306  148E               	line	461
  3003                           ;C:/Users/lexa/MPLABXProjects/4dLED.X/newmain4dLED_before dots.c: 461:             LATAb
                                 its.LATA2 = on;
  3004                           	rrf	(_on),w
  3005  0307  0C70               	skipc
  3006  0308  1C03               	bcf	(268)^0100h,2	;volatile
  3007  0309  110C               	skipnc
  3008  030A  1803               	bsf	(268)^0100h,2	;volatile
  3009  030B  150C               	line	462
  3010                           ;C:/Users/lexa/MPLABXProjects/4dLED.X/newmain4dLED_before dots.c: 462:             LATCb
                                 its.LATC0 = on;
  3011                           	rrf	(_on),w
  3012  030C  0C70               	skipc
  3013  030D  1C03               	bcf	(270)^0100h,0	;volatile
  3014  030E  100E               	skipnc
  3015  030F  1803               	bsf	(270)^0100h,0	;volatile
  3016  0310  140E               	line	463
  3017                           ;C:/Users/lexa/MPLABXProjects/4dLED.X/newmain4dLED_before dots.c: 463:             LATBb
                                 its.LATB5 = off;
  3018                           	rrf	(_off),w
  3019  0311  0C79               	skipc
  3020  0312  1C03               	bcf	(269)^0100h,5	;volatile
  3021  0313  128D               	skipnc
  3022  0314  1803               	bsf	(269)^0100h,5	;volatile
  3023  0315  168D               	line	464
  3024                           ;C:/Users/lexa/MPLABXProjects/4dLED.X/newmain4dLED_before dots.c: 464:             LATCb
                                 its.LATC3 = off;
  3025                           	rrf	(_off),w
  3026  0316  0C79               	skipc
  3027  0317  1C03               	bcf	(270)^0100h,3	;volatile
  3028  0318  118E               	skipnc
  3029  0319  1803               	bsf	(270)^0100h,3	;volatile
  3030  031A  158E               	line	465
  3031                           ;C:/Users/lexa/MPLABXProjects/4dLED.X/newmain4dLED_before dots.c: 465:             break
                                 ;
  3032                           	goto	l212
  3033  031B  2EA3               	line	466
  3034                           ;C:/Users/lexa/MPLABXProjects/4dLED.X/newmain4dLED_before dots.c: 466:         case 13:

  3035                           	
  3036                           l193:	
  3037  031C                     	line	467
  3038                           	
  3039                           l1510:	
  3040  031C                     ;C:/Users/lexa/MPLABXProjects/4dLED.X/newmain4dLED_before dots.c: 467:             LATAb
                                 its.LATA5 = off;
  3041                           	rrf	(_off),w
  3042  031C  0C79               	movlb 2	; select bank2
  3043  031D  0022               	skipc
  3044  031E  1C03               	bcf	(268)^0100h,5	;volatile
  3045  031F  128C               	skipnc
  3046  0320  1803               	bsf	(268)^0100h,5	;volatile
  3047  0321  168C               	line	468
  3048                           ;C:/Users/lexa/MPLABXProjects/4dLED.X/newmain4dLED_before dots.c: 468:             LATCb
                                 its.LATC2 = on;
  3049                           	rrf	(_on),w
  3050  0322  0C70               	skipc
  3051  0323  1C03               	bcf	(270)^0100h,2	;volatile
  3052  0324  110E               	skipnc
  3053  0325  1803               	bsf	(270)^0100h,2	;volatile
  3054  0326  150E               	line	469
  3055                           ;C:/Users/lexa/MPLABXProjects/4dLED.X/newmain4dLED_before dots.c: 469:             LATAb
                                 its.LATA4 = on;
  3056                           	rrf	(_on),w
  3057  0327  0C70               	skipc
  3058  0328  1C03               	bcf	(268)^0100h,4	;volatile
  3059  0329  120C               	skipnc
  3060  032A  1803               	bsf	(268)^0100h,4	;volatile
  3061  032B  160C               	line	470
  3062                           ;C:/Users/lexa/MPLABXProjects/4dLED.X/newmain4dLED_before dots.c: 470:             LATCb
                                 its.LATC1 = on;
  3063                           	rrf	(_on),w
  3064  032C  0C70               	skipc
  3065  032D  1C03               	bcf	(270)^0100h,1	;volatile
  3066  032E  108E               	skipnc
  3067  032F  1803               	bsf	(270)^0100h,1	;volatile
  3068  0330  148E               	line	471
  3069                           ;C:/Users/lexa/MPLABXProjects/4dLED.X/newmain4dLED_before dots.c: 471:             LATAb
                                 its.LATA2 = on;
  3070                           	rrf	(_on),w
  3071  0331  0C70               	skipc
  3072  0332  1C03               	bcf	(268)^0100h,2	;volatile
  3073  0333  110C               	skipnc
  3074  0334  1803               	bsf	(268)^0100h,2	;volatile
  3075  0335  150C               	line	472
  3076                           ;C:/Users/lexa/MPLABXProjects/4dLED.X/newmain4dLED_before dots.c: 472:             LATCb
                                 its.LATC0 = off;
  3077                           	rrf	(_off),w
  3078  0336  0C79               	skipc
  3079  0337  1C03               	bcf	(270)^0100h,0	;volatile
  3080  0338  100E               	skipnc
  3081  0339  1803               	bsf	(270)^0100h,0	;volatile
  3082  033A  140E               	line	473
  3083                           ;C:/Users/lexa/MPLABXProjects/4dLED.X/newmain4dLED_before dots.c: 473:             LATBb
                                 its.LATB5 = on;
  3084                           	rrf	(_on),w
  3085  033B  0C70               	skipc
  3086  033C  1C03               	bcf	(269)^0100h,5	;volatile
  3087  033D  128D               	skipnc
  3088  033E  1803               	bsf	(269)^0100h,5	;volatile
  3089  033F  168D               	line	474
  3090                           ;C:/Users/lexa/MPLABXProjects/4dLED.X/newmain4dLED_before dots.c: 474:             LATCb
                                 its.LATC3 = off;
  3091                           	rrf	(_off),w
  3092  0340  0C79               	skipc
  3093  0341  1C03               	bcf	(270)^0100h,3	;volatile
  3094  0342  118E               	skipnc
  3095  0343  1803               	bsf	(270)^0100h,3	;volatile
  3096  0344  158E               	line	475
  3097                           ;C:/Users/lexa/MPLABXProjects/4dLED.X/newmain4dLED_before dots.c: 475:             break
                                 ;
  3098                           	goto	l212
  3099  0345  2EA3               	line	476
  3100                           ;C:/Users/lexa/MPLABXProjects/4dLED.X/newmain4dLED_before dots.c: 476:         case 14:

  3101                           	
  3102                           l194:	
  3103  0346                     	line	477
  3104                           	
  3105                           l1512:	
  3106  0346                     ;C:/Users/lexa/MPLABXProjects/4dLED.X/newmain4dLED_before dots.c: 477:             LATAb
                                 its.LATA5 = on;
  3107                           	rrf	(_on),w
  3108  0346  0C70               	movlb 2	; select bank2
  3109  0347  0022               	skipc
  3110  0348  1C03               	bcf	(268)^0100h,5	;volatile
  3111  0349  128C               	skipnc
  3112  034A  1803               	bsf	(268)^0100h,5	;volatile
  3113  034B  168C               	line	478
  3114                           ;C:/Users/lexa/MPLABXProjects/4dLED.X/newmain4dLED_before dots.c: 478:             LATCb
                                 its.LATC2 = off;
  3115                           	rrf	(_off),w
  3116  034C  0C79               	skipc
  3117  034D  1C03               	bcf	(270)^0100h,2	;volatile
  3118  034E  110E               	skipnc
  3119  034F  1803               	bsf	(270)^0100h,2	;volatile
  3120  0350  150E               	line	479
  3121                           ;C:/Users/lexa/MPLABXProjects/4dLED.X/newmain4dLED_before dots.c: 479:             LATAb
                                 its.LATA4 = off;
  3122                           	rrf	(_off),w
  3123  0351  0C79               	skipc
  3124  0352  1C03               	bcf	(268)^0100h,4	;volatile
  3125  0353  120C               	skipnc
  3126  0354  1803               	bsf	(268)^0100h,4	;volatile
  3127  0355  160C               	line	480
  3128                           ;C:/Users/lexa/MPLABXProjects/4dLED.X/newmain4dLED_before dots.c: 480:             LATCb
                                 its.LATC1 = on;
  3129                           	rrf	(_on),w
  3130  0356  0C70               	skipc
  3131  0357  1C03               	bcf	(270)^0100h,1	;volatile
  3132  0358  108E               	skipnc
  3133  0359  1803               	bsf	(270)^0100h,1	;volatile
  3134  035A  148E               	line	481
  3135                           ;C:/Users/lexa/MPLABXProjects/4dLED.X/newmain4dLED_before dots.c: 481:             LATAb
                                 its.LATA2 = on;
  3136                           	rrf	(_on),w
  3137  035B  0C70               	skipc
  3138  035C  1C03               	bcf	(268)^0100h,2	;volatile
  3139  035D  110C               	skipnc
  3140  035E  1803               	bsf	(268)^0100h,2	;volatile
  3141  035F  150C               	line	482
  3142                           ;C:/Users/lexa/MPLABXProjects/4dLED.X/newmain4dLED_before dots.c: 482:             LATCb
                                 its.LATC0 = on;
  3143                           	rrf	(_on),w
  3144  0360  0C70               	skipc
  3145  0361  1C03               	bcf	(270)^0100h,0	;volatile
  3146  0362  100E               	skipnc
  3147  0363  1803               	bsf	(270)^0100h,0	;volatile
  3148  0364  140E               	line	483
  3149                           ;C:/Users/lexa/MPLABXProjects/4dLED.X/newmain4dLED_before dots.c: 483:             LATBb
                                 its.LATB5 = on;
  3150                           	rrf	(_on),w
  3151  0365  0C70               	skipc
  3152  0366  1C03               	bcf	(269)^0100h,5	;volatile
  3153  0367  128D               	skipnc
  3154  0368  1803               	bsf	(269)^0100h,5	;volatile
  3155  0369  168D               	line	484
  3156                           ;C:/Users/lexa/MPLABXProjects/4dLED.X/newmain4dLED_before dots.c: 484:             LATCb
                                 its.LATC3 = off;
  3157                           	rrf	(_off),w
  3158  036A  0C79               	skipc
  3159  036B  1C03               	bcf	(270)^0100h,3	;volatile
  3160  036C  118E               	skipnc
  3161  036D  1803               	bsf	(270)^0100h,3	;volatile
  3162  036E  158E               	line	485
  3163                           ;C:/Users/lexa/MPLABXProjects/4dLED.X/newmain4dLED_before dots.c: 485:             break
                                 ;
  3164                           	goto	l212
  3165  036F  2EA3               	line	486
  3166                           ;C:/Users/lexa/MPLABXProjects/4dLED.X/newmain4dLED_before dots.c: 486:         case 15:

  3167                           	
  3168                           l195:	
  3169  0370                     	line	487
  3170                           	
  3171                           l1514:	
  3172  0370                     ;C:/Users/lexa/MPLABXProjects/4dLED.X/newmain4dLED_before dots.c: 487:             LATAb
                                 its.LATA5 = on;
  3173                           	rrf	(_on),w
  3174  0370  0C70               	movlb 2	; select bank2
  3175  0371  0022               	skipc
  3176  0372  1C03               	bcf	(268)^0100h,5	;volatile
  3177  0373  128C               	skipnc
  3178  0374  1803               	bsf	(268)^0100h,5	;volatile
  3179  0375  168C               	line	488
  3180                           ;C:/Users/lexa/MPLABXProjects/4dLED.X/newmain4dLED_before dots.c: 488:             LATCb
                                 its.LATC2 = off;
  3181                           	rrf	(_off),w
  3182  0376  0C79               	skipc
  3183  0377  1C03               	bcf	(270)^0100h,2	;volatile
  3184  0378  110E               	skipnc
  3185  0379  1803               	bsf	(270)^0100h,2	;volatile
  3186  037A  150E               	line	489
  3187                           ;C:/Users/lexa/MPLABXProjects/4dLED.X/newmain4dLED_before dots.c: 489:             LATAb
                                 its.LATA4 = off;
  3188                           	rrf	(_off),w
  3189  037B  0C79               	skipc
  3190  037C  1C03               	bcf	(268)^0100h,4	;volatile
  3191  037D  120C               	skipnc
  3192  037E  1803               	bsf	(268)^0100h,4	;volatile
  3193  037F  160C               	line	490
  3194                           ;C:/Users/lexa/MPLABXProjects/4dLED.X/newmain4dLED_before dots.c: 490:             LATCb
                                 its.LATC1 = off;
  3195                           	rrf	(_off),w
  3196  0380  0C79               	skipc
  3197  0381  1C03               	bcf	(270)^0100h,1	;volatile
  3198  0382  108E               	skipnc
  3199  0383  1803               	bsf	(270)^0100h,1	;volatile
  3200  0384  148E               	line	491
  3201                           ;C:/Users/lexa/MPLABXProjects/4dLED.X/newmain4dLED_before dots.c: 491:             LATAb
                                 its.LATA2 = on;
  3202                           	rrf	(_on),w
  3203  0385  0C70               	skipc
  3204  0386  1C03               	bcf	(268)^0100h,2	;volatile
  3205  0387  110C               	skipnc
  3206  0388  1803               	bsf	(268)^0100h,2	;volatile
  3207  0389  150C               	line	492
  3208                           ;C:/Users/lexa/MPLABXProjects/4dLED.X/newmain4dLED_before dots.c: 492:             LATCb
                                 its.LATC0 = on;
  3209                           	rrf	(_on),w
  3210  038A  0C70               	skipc
  3211  038B  1C03               	bcf	(270)^0100h,0	;volatile
  3212  038C  100E               	skipnc
  3213  038D  1803               	bsf	(270)^0100h,0	;volatile
  3214  038E  140E               	line	493
  3215                           ;C:/Users/lexa/MPLABXProjects/4dLED.X/newmain4dLED_before dots.c: 493:             LATBb
                                 its.LATB5 = on;
  3216                           	rrf	(_on),w
  3217  038F  0C70               	skipc
  3218  0390  1C03               	bcf	(269)^0100h,5	;volatile
  3219  0391  128D               	skipnc
  3220  0392  1803               	bsf	(269)^0100h,5	;volatile
  3221  0393  168D               	line	494
  3222                           ;C:/Users/lexa/MPLABXProjects/4dLED.X/newmain4dLED_before dots.c: 494:             LATCb
                                 its.LATC3 = off;
  3223                           	rrf	(_off),w
  3224  0394  0C79               	skipc
  3225  0395  1C03               	bcf	(270)^0100h,3	;volatile
  3226  0396  118E               	skipnc
  3227  0397  1803               	bsf	(270)^0100h,3	;volatile
  3228  0398  158E               	line	495
  3229                           ;C:/Users/lexa/MPLABXProjects/4dLED.X/newmain4dLED_before dots.c: 495:             break
                                 ;
  3230                           	goto	l212
  3231  0399  2EA3               	line	496
  3232                           ;C:/Users/lexa/MPLABXProjects/4dLED.X/newmain4dLED_before dots.c: 496:         case 128:
                                 
  3233                           	
  3234                           l196:	
  3235  039A                     	line	497
  3236                           	
  3237                           l1516:	
  3238  039A                     ;C:/Users/lexa/MPLABXProjects/4dLED.X/newmain4dLED_before dots.c: 497:             LATAb
                                 its.LATA5 = on;
  3239                           	rrf	(_on),w
  3240  039A  0C70               	movlb 2	; select bank2
  3241  039B  0022               	skipc
  3242  039C  1C03               	bcf	(268)^0100h,5	;volatile
  3243  039D  128C               	skipnc
  3244  039E  1803               	bsf	(268)^0100h,5	;volatile
  3245  039F  168C               	line	498
  3246                           ;C:/Users/lexa/MPLABXProjects/4dLED.X/newmain4dLED_before dots.c: 498:             LATCb
                                 its.LATC2 = on;
  3247                           	rrf	(_on),w
  3248  03A0  0C70               	skipc
  3249  03A1  1C03               	bcf	(270)^0100h,2	;volatile
  3250  03A2  110E               	skipnc
  3251  03A3  1803               	bsf	(270)^0100h,2	;volatile
  3252  03A4  150E               	line	499
  3253                           ;C:/Users/lexa/MPLABXProjects/4dLED.X/newmain4dLED_before dots.c: 499:             LATAb
                                 its.LATA4 = on;
  3254                           	rrf	(_on),w
  3255  03A5  0C70               	skipc
  3256  03A6  1C03               	bcf	(268)^0100h,4	;volatile
  3257  03A7  120C               	skipnc
  3258  03A8  1803               	bsf	(268)^0100h,4	;volatile
  3259  03A9  160C               	line	500
  3260                           ;C:/Users/lexa/MPLABXProjects/4dLED.X/newmain4dLED_before dots.c: 500:             LATCb
                                 its.LATC1 = on;
  3261                           	rrf	(_on),w
  3262  03AA  0C70               	skipc
  3263  03AB  1C03               	bcf	(270)^0100h,1	;volatile
  3264  03AC  108E               	skipnc
  3265  03AD  1803               	bsf	(270)^0100h,1	;volatile
  3266  03AE  148E               	line	501
  3267                           ;C:/Users/lexa/MPLABXProjects/4dLED.X/newmain4dLED_before dots.c: 501:             LATAb
                                 its.LATA2 = on;
  3268                           	rrf	(_on),w
  3269  03AF  0C70               	skipc
  3270  03B0  1C03               	bcf	(268)^0100h,2	;volatile
  3271  03B1  110C               	skipnc
  3272  03B2  1803               	bsf	(268)^0100h,2	;volatile
  3273  03B3  150C               	line	502
  3274                           ;C:/Users/lexa/MPLABXProjects/4dLED.X/newmain4dLED_before dots.c: 502:             LATCb
                                 its.LATC0 = on;
  3275                           	rrf	(_on),w
  3276  03B4  0C70               	skipc
  3277  03B5  1C03               	bcf	(270)^0100h,0	;volatile
  3278  03B6  100E               	skipnc
  3279  03B7  1803               	bsf	(270)^0100h,0	;volatile
  3280  03B8  140E               	line	503
  3281                           ;C:/Users/lexa/MPLABXProjects/4dLED.X/newmain4dLED_before dots.c: 503:             LATBb
                                 its.LATB5 = off;
  3282                           	rrf	(_off),w
  3283  03B9  0C79               	skipc
  3284  03BA  1C03               	bcf	(269)^0100h,5	;volatile
  3285  03BB  128D               	skipnc
  3286  03BC  1803               	bsf	(269)^0100h,5	;volatile
  3287  03BD  168D               	line	504
  3288                           ;C:/Users/lexa/MPLABXProjects/4dLED.X/newmain4dLED_before dots.c: 504:             LATCb
                                 its.LATC3 = on;
  3289                           	rrf	(_on),w
  3290  03BE  0C70               	skipc
  3291  03BF  1C03               	bcf	(270)^0100h,3	;volatile
  3292  03C0  118E               	skipnc
  3293  03C1  1803               	bsf	(270)^0100h,3	;volatile
  3294  03C2  158E               	line	505
  3295                           ;C:/Users/lexa/MPLABXProjects/4dLED.X/newmain4dLED_before dots.c: 505:             break
                                 ;
  3296                           	goto	l212
  3297  03C3  2EA3               	line	506
  3298                           ;C:/Users/lexa/MPLABXProjects/4dLED.X/newmain4dLED_before dots.c: 506:         case 129:
                                 
  3299                           	
  3300                           l197:	
  3301  03C4                     	line	507
  3302                           	
  3303                           l1518:	
  3304  03C4                     ;C:/Users/lexa/MPLABXProjects/4dLED.X/newmain4dLED_before dots.c: 507:             LATAb
                                 its.LATA5 = off;
  3305                           	rrf	(_off),w
  3306  03C4  0C79               	movlb 2	; select bank2
  3307  03C5  0022               	skipc
  3308  03C6  1C03               	bcf	(268)^0100h,5	;volatile
  3309  03C7  128C               	skipnc
  3310  03C8  1803               	bsf	(268)^0100h,5	;volatile
  3311  03C9  168C               	line	508
  3312                           ;C:/Users/lexa/MPLABXProjects/4dLED.X/newmain4dLED_before dots.c: 508:             LATCb
                                 its.LATC2 = on;
  3313                           	rrf	(_on),w
  3314  03CA  0C70               	skipc
  3315  03CB  1C03               	bcf	(270)^0100h,2	;volatile
  3316  03CC  110E               	skipnc
  3317  03CD  1803               	bsf	(270)^0100h,2	;volatile
  3318  03CE  150E               	line	509
  3319                           ;C:/Users/lexa/MPLABXProjects/4dLED.X/newmain4dLED_before dots.c: 509:             LATAb
                                 its.LATA4 = on;
  3320                           	rrf	(_on),w
  3321  03CF  0C70               	skipc
  3322  03D0  1C03               	bcf	(268)^0100h,4	;volatile
  3323  03D1  120C               	skipnc
  3324  03D2  1803               	bsf	(268)^0100h,4	;volatile
  3325  03D3  160C               	line	510
  3326                           ;C:/Users/lexa/MPLABXProjects/4dLED.X/newmain4dLED_before dots.c: 510:             LATCb
                                 its.LATC1 = off;
  3327                           	rrf	(_off),w
  3328  03D4  0C79               	skipc
  3329  03D5  1C03               	bcf	(270)^0100h,1	;volatile
  3330  03D6  108E               	skipnc
  3331  03D7  1803               	bsf	(270)^0100h,1	;volatile
  3332  03D8  148E               	line	511
  3333                           ;C:/Users/lexa/MPLABXProjects/4dLED.X/newmain4dLED_before dots.c: 511:             LATAb
                                 its.LATA2 = off;
  3334                           	rrf	(_off),w
  3335  03D9  0C79               	skipc
  3336  03DA  1C03               	bcf	(268)^0100h,2	;volatile
  3337  03DB  110C               	skipnc
  3338  03DC  1803               	bsf	(268)^0100h,2	;volatile
  3339  03DD  150C               	line	512
  3340                           ;C:/Users/lexa/MPLABXProjects/4dLED.X/newmain4dLED_before dots.c: 512:             LATCb
                                 its.LATC0 = off;
  3341                           	rrf	(_off),w
  3342  03DE  0C79               	skipc
  3343  03DF  1C03               	bcf	(270)^0100h,0	;volatile
  3344  03E0  100E               	skipnc
  3345  03E1  1803               	bsf	(270)^0100h,0	;volatile
  3346  03E2  140E               	line	513
  3347                           ;C:/Users/lexa/MPLABXProjects/4dLED.X/newmain4dLED_before dots.c: 513:             LATBb
                                 its.LATB5 = off;
  3348                           	rrf	(_off),w
  3349  03E3  0C79               	skipc
  3350  03E4  1C03               	bcf	(269)^0100h,5	;volatile
  3351  03E5  128D               	skipnc
  3352  03E6  1803               	bsf	(269)^0100h,5	;volatile
  3353  03E7  168D               	line	514
  3354                           ;C:/Users/lexa/MPLABXProjects/4dLED.X/newmain4dLED_before dots.c: 514:             LATCb
                                 its.LATC3 = on;
  3355                           	rrf	(_on),w
  3356  03E8  0C70               	skipc
  3357  03E9  1C03               	bcf	(270)^0100h,3	;volatile
  3358  03EA  118E               	skipnc
  3359  03EB  1803               	bsf	(270)^0100h,3	;volatile
  3360  03EC  158E               	line	515
  3361                           ;C:/Users/lexa/MPLABXProjects/4dLED.X/newmain4dLED_before dots.c: 515:             break
                                 ;
  3362                           	goto	l212
  3363  03ED  2EA3               	line	516
  3364                           ;C:/Users/lexa/MPLABXProjects/4dLED.X/newmain4dLED_before dots.c: 516:         case 130:
                                 
  3365                           	
  3366                           l198:	
  3367  03EE                     	line	517
  3368                           	
  3369                           l1520:	
  3370  03EE                     ;C:/Users/lexa/MPLABXProjects/4dLED.X/newmain4dLED_before dots.c: 517:             LATAb
                                 its.LATA5 = on;
  3371                           	rrf	(_on),w
  3372  03EE  0C70               	movlb 2	; select bank2
  3373  03EF  0022               	skipc
  3374  03F0  1C03               	bcf	(268)^0100h,5	;volatile
  3375  03F1  128C               	skipnc
  3376  03F2  1803               	bsf	(268)^0100h,5	;volatile
  3377  03F3  168C               	line	518
  3378                           ;C:/Users/lexa/MPLABXProjects/4dLED.X/newmain4dLED_before dots.c: 518:             LATCb
                                 its.LATC2 = on;
  3379                           	rrf	(_on),w
  3380  03F4  0C70               	skipc
  3381  03F5  1C03               	bcf	(270)^0100h,2	;volatile
  3382  03F6  110E               	skipnc
  3383  03F7  1803               	bsf	(270)^0100h,2	;volatile
  3384  03F8  150E               	line	519
  3385                           ;C:/Users/lexa/MPLABXProjects/4dLED.X/newmain4dLED_before dots.c: 519:             LATAb
                                 its.LATA4 = off;
  3386                           	rrf	(_off),w
  3387  03F9  0C79               	skipc
  3388  03FA  1C03               	bcf	(268)^0100h,4	;volatile
  3389  03FB  120C               	skipnc
  3390  03FC  1803               	bsf	(268)^0100h,4	;volatile
  3391  03FD  160C               	line	520
  3392                           ;C:/Users/lexa/MPLABXProjects/4dLED.X/newmain4dLED_before dots.c: 520:             LATCb
                                 its.LATC1 = on;
  3393                           	rrf	(_on),w
  3394  03FE  0C70               	skipc
  3395  03FF  1C03               	bcf	(270)^0100h,1	;volatile
  3396  0400  108E               	skipnc
  3397  0401  1803               	bsf	(270)^0100h,1	;volatile
  3398  0402  148E               	line	521
  3399                           ;C:/Users/lexa/MPLABXProjects/4dLED.X/newmain4dLED_before dots.c: 521:             LATAb
                                 its.LATA2 = on;
  3400                           	rrf	(_on),w
  3401  0403  0C70               	skipc
  3402  0404  1C03               	bcf	(268)^0100h,2	;volatile
  3403  0405  110C               	skipnc
  3404  0406  1803               	bsf	(268)^0100h,2	;volatile
  3405  0407  150C               	line	522
  3406                           ;C:/Users/lexa/MPLABXProjects/4dLED.X/newmain4dLED_before dots.c: 522:             LATCb
                                 its.LATC0 = off;
  3407                           	rrf	(_off),w
  3408  0408  0C79               	skipc
  3409  0409  1C03               	bcf	(270)^0100h,0	;volatile
  3410  040A  100E               	skipnc
  3411  040B  1803               	bsf	(270)^0100h,0	;volatile
  3412  040C  140E               	line	523
  3413                           ;C:/Users/lexa/MPLABXProjects/4dLED.X/newmain4dLED_before dots.c: 523:             LATBb
                                 its.LATB5 = on;
  3414                           	rrf	(_on),w
  3415  040D  0C70               	skipc
  3416  040E  1C03               	bcf	(269)^0100h,5	;volatile
  3417  040F  128D               	skipnc
  3418  0410  1803               	bsf	(269)^0100h,5	;volatile
  3419  0411  168D               	line	524
  3420                           ;C:/Users/lexa/MPLABXProjects/4dLED.X/newmain4dLED_before dots.c: 524:             LATCb
                                 its.LATC3 = on;
  3421                           	rrf	(_on),w
  3422  0412  0C70               	skipc
  3423  0413  1C03               	bcf	(270)^0100h,3	;volatile
  3424  0414  118E               	skipnc
  3425  0415  1803               	bsf	(270)^0100h,3	;volatile
  3426  0416  158E               	line	525
  3427                           ;C:/Users/lexa/MPLABXProjects/4dLED.X/newmain4dLED_before dots.c: 525:             break
                                 ;
  3428                           	goto	l212
  3429  0417  2EA3               	line	526
  3430                           ;C:/Users/lexa/MPLABXProjects/4dLED.X/newmain4dLED_before dots.c: 526:         case 131:
                                 
  3431                           	
  3432                           l199:	
  3433  0418                     	line	527
  3434                           	
  3435                           l1522:	
  3436  0418                     ;C:/Users/lexa/MPLABXProjects/4dLED.X/newmain4dLED_before dots.c: 527:             LATAb
                                 its.LATA5 = on;
  3437                           	rrf	(_on),w
  3438  0418  0C70               	movlb 2	; select bank2
  3439  0419  0022               	skipc
  3440  041A  1C03               	bcf	(268)^0100h,5	;volatile
  3441  041B  128C               	skipnc
  3442  041C  1803               	bsf	(268)^0100h,5	;volatile
  3443  041D  168C               	line	528
  3444                           ;C:/Users/lexa/MPLABXProjects/4dLED.X/newmain4dLED_before dots.c: 528:             LATCb
                                 its.LATC2 = on;
  3445                           	rrf	(_on),w
  3446  041E  0C70               	skipc
  3447  041F  1C03               	bcf	(270)^0100h,2	;volatile
  3448  0420  110E               	skipnc
  3449  0421  1803               	bsf	(270)^0100h,2	;volatile
  3450  0422  150E               	line	529
  3451                           ;C:/Users/lexa/MPLABXProjects/4dLED.X/newmain4dLED_before dots.c: 529:             LATAb
                                 its.LATA4 = on;
  3452                           	rrf	(_on),w
  3453  0423  0C70               	skipc
  3454  0424  1C03               	bcf	(268)^0100h,4	;volatile
  3455  0425  120C               	skipnc
  3456  0426  1803               	bsf	(268)^0100h,4	;volatile
  3457  0427  160C               	line	530
  3458                           ;C:/Users/lexa/MPLABXProjects/4dLED.X/newmain4dLED_before dots.c: 530:             LATCb
                                 its.LATC1 = on;
  3459                           	rrf	(_on),w
  3460  0428  0C70               	skipc
  3461  0429  1C03               	bcf	(270)^0100h,1	;volatile
  3462  042A  108E               	skipnc
  3463  042B  1803               	bsf	(270)^0100h,1	;volatile
  3464  042C  148E               	line	531
  3465                           ;C:/Users/lexa/MPLABXProjects/4dLED.X/newmain4dLED_before dots.c: 531:             LATAb
                                 its.LATA2 = off;
  3466                           	rrf	(_off),w
  3467  042D  0C79               	skipc
  3468  042E  1C03               	bcf	(268)^0100h,2	;volatile
  3469  042F  110C               	skipnc
  3470  0430  1803               	bsf	(268)^0100h,2	;volatile
  3471  0431  150C               	line	532
  3472                           ;C:/Users/lexa/MPLABXProjects/4dLED.X/newmain4dLED_before dots.c: 532:             LATCb
                                 its.LATC0 = off;
  3473                           	rrf	(_off),w
  3474  0432  0C79               	skipc
  3475  0433  1C03               	bcf	(270)^0100h,0	;volatile
  3476  0434  100E               	skipnc
  3477  0435  1803               	bsf	(270)^0100h,0	;volatile
  3478  0436  140E               	line	533
  3479                           ;C:/Users/lexa/MPLABXProjects/4dLED.X/newmain4dLED_before dots.c: 533:             LATBb
                                 its.LATB5 = on;
  3480                           	rrf	(_on),w
  3481  0437  0C70               	skipc
  3482  0438  1C03               	bcf	(269)^0100h,5	;volatile
  3483  0439  128D               	skipnc
  3484  043A  1803               	bsf	(269)^0100h,5	;volatile
  3485  043B  168D               	line	534
  3486                           ;C:/Users/lexa/MPLABXProjects/4dLED.X/newmain4dLED_before dots.c: 534:             LATCb
                                 its.LATC3 = on;
  3487                           	rrf	(_on),w
  3488  043C  0C70               	skipc
  3489  043D  1C03               	bcf	(270)^0100h,3	;volatile
  3490  043E  118E               	skipnc
  3491  043F  1803               	bsf	(270)^0100h,3	;volatile
  3492  0440  158E               	line	535
  3493                           ;C:/Users/lexa/MPLABXProjects/4dLED.X/newmain4dLED_before dots.c: 535:             break
                                 ;
  3494                           	goto	l212
  3495  0441  2EA3               	line	536
  3496                           ;C:/Users/lexa/MPLABXProjects/4dLED.X/newmain4dLED_before dots.c: 536:         case 132:
                                 
  3497                           	
  3498                           l200:	
  3499  0442                     	line	537
  3500                           	
  3501                           l1524:	
  3502  0442                     ;C:/Users/lexa/MPLABXProjects/4dLED.X/newmain4dLED_before dots.c: 537:             LATAb
                                 its.LATA5 = off;
  3503                           	rrf	(_off),w
  3504  0442  0C79               	movlb 2	; select bank2
  3505  0443  0022               	skipc
  3506  0444  1C03               	bcf	(268)^0100h,5	;volatile
  3507  0445  128C               	skipnc
  3508  0446  1803               	bsf	(268)^0100h,5	;volatile
  3509  0447  168C               	line	538
  3510                           ;C:/Users/lexa/MPLABXProjects/4dLED.X/newmain4dLED_before dots.c: 538:             LATCb
                                 its.LATC2 = on;
  3511                           	rrf	(_on),w
  3512  0448  0C70               	skipc
  3513  0449  1C03               	bcf	(270)^0100h,2	;volatile
  3514  044A  110E               	skipnc
  3515  044B  1803               	bsf	(270)^0100h,2	;volatile
  3516  044C  150E               	line	539
  3517                           ;C:/Users/lexa/MPLABXProjects/4dLED.X/newmain4dLED_before dots.c: 539:             LATAb
                                 its.LATA4 = on;
  3518                           	rrf	(_on),w
  3519  044D  0C70               	skipc
  3520  044E  1C03               	bcf	(268)^0100h,4	;volatile
  3521  044F  120C               	skipnc
  3522  0450  1803               	bsf	(268)^0100h,4	;volatile
  3523  0451  160C               	line	540
  3524                           ;C:/Users/lexa/MPLABXProjects/4dLED.X/newmain4dLED_before dots.c: 540:             LATCb
                                 its.LATC1 = off;
  3525                           	rrf	(_off),w
  3526  0452  0C79               	skipc
  3527  0453  1C03               	bcf	(270)^0100h,1	;volatile
  3528  0454  108E               	skipnc
  3529  0455  1803               	bsf	(270)^0100h,1	;volatile
  3530  0456  148E               	line	541
  3531                           ;C:/Users/lexa/MPLABXProjects/4dLED.X/newmain4dLED_before dots.c: 541:             LATAb
                                 its.LATA2 = off;
  3532                           	rrf	(_off),w
  3533  0457  0C79               	skipc
  3534  0458  1C03               	bcf	(268)^0100h,2	;volatile
  3535  0459  110C               	skipnc
  3536  045A  1803               	bsf	(268)^0100h,2	;volatile
  3537  045B  150C               	line	542
  3538                           ;C:/Users/lexa/MPLABXProjects/4dLED.X/newmain4dLED_before dots.c: 542:             LATCb
                                 its.LATC0 = on;
  3539                           	rrf	(_on),w
  3540  045C  0C70               	skipc
  3541  045D  1C03               	bcf	(270)^0100h,0	;volatile
  3542  045E  100E               	skipnc
  3543  045F  1803               	bsf	(270)^0100h,0	;volatile
  3544  0460  140E               	line	543
  3545                           ;C:/Users/lexa/MPLABXProjects/4dLED.X/newmain4dLED_before dots.c: 543:             LATBb
                                 its.LATB5 = on;
  3546                           	rrf	(_on),w
  3547  0461  0C70               	skipc
  3548  0462  1C03               	bcf	(269)^0100h,5	;volatile
  3549  0463  128D               	skipnc
  3550  0464  1803               	bsf	(269)^0100h,5	;volatile
  3551  0465  168D               	line	544
  3552                           ;C:/Users/lexa/MPLABXProjects/4dLED.X/newmain4dLED_before dots.c: 544:             LATCb
                                 its.LATC3 = on;
  3553                           	rrf	(_on),w
  3554  0466  0C70               	skipc
  3555  0467  1C03               	bcf	(270)^0100h,3	;volatile
  3556  0468  118E               	skipnc
  3557  0469  1803               	bsf	(270)^0100h,3	;volatile
  3558  046A  158E               	line	545
  3559                           ;C:/Users/lexa/MPLABXProjects/4dLED.X/newmain4dLED_before dots.c: 545:             break
                                 ;
  3560                           	goto	l212
  3561  046B  2EA3               	line	546
  3562                           ;C:/Users/lexa/MPLABXProjects/4dLED.X/newmain4dLED_before dots.c: 546:         case 133:
                                 
  3563                           	
  3564                           l201:	
  3565  046C                     	line	547
  3566                           	
  3567                           l1526:	
  3568  046C                     ;C:/Users/lexa/MPLABXProjects/4dLED.X/newmain4dLED_before dots.c: 547:             LATAb
                                 its.LATA5 = on;
  3569                           	rrf	(_on),w
  3570  046C  0C70               	movlb 2	; select bank2
  3571  046D  0022               	skipc
  3572  046E  1C03               	bcf	(268)^0100h,5	;volatile
  3573  046F  128C               	skipnc
  3574  0470  1803               	bsf	(268)^0100h,5	;volatile
  3575  0471  168C               	line	548
  3576                           ;C:/Users/lexa/MPLABXProjects/4dLED.X/newmain4dLED_before dots.c: 548:             LATCb
                                 its.LATC2 = off;
  3577                           	rrf	(_off),w
  3578  0472  0C79               	skipc
  3579  0473  1C03               	bcf	(270)^0100h,2	;volatile
  3580  0474  110E               	skipnc
  3581  0475  1803               	bsf	(270)^0100h,2	;volatile
  3582  0476  150E               	line	549
  3583                           ;C:/Users/lexa/MPLABXProjects/4dLED.X/newmain4dLED_before dots.c: 549:             LATAb
                                 its.LATA4 = on;
  3584                           	rrf	(_on),w
  3585  0477  0C70               	skipc
  3586  0478  1C03               	bcf	(268)^0100h,4	;volatile
  3587  0479  120C               	skipnc
  3588  047A  1803               	bsf	(268)^0100h,4	;volatile
  3589  047B  160C               	line	550
  3590                           ;C:/Users/lexa/MPLABXProjects/4dLED.X/newmain4dLED_before dots.c: 550:             LATCb
                                 its.LATC1 = on;
  3591                           	rrf	(_on),w
  3592  047C  0C70               	skipc
  3593  047D  1C03               	bcf	(270)^0100h,1	;volatile
  3594  047E  108E               	skipnc
  3595  047F  1803               	bsf	(270)^0100h,1	;volatile
  3596  0480  148E               	line	551
  3597                           ;C:/Users/lexa/MPLABXProjects/4dLED.X/newmain4dLED_before dots.c: 551:             LATAb
                                 its.LATA2 = off;
  3598                           	rrf	(_off),w
  3599  0481  0C79               	skipc
  3600  0482  1C03               	bcf	(268)^0100h,2	;volatile
  3601  0483  110C               	skipnc
  3602  0484  1803               	bsf	(268)^0100h,2	;volatile
  3603  0485  150C               	line	552
  3604                           ;C:/Users/lexa/MPLABXProjects/4dLED.X/newmain4dLED_before dots.c: 552:             LATCb
                                 its.LATC0 = on;
  3605                           	rrf	(_on),w
  3606  0486  0C70               	skipc
  3607  0487  1C03               	bcf	(270)^0100h,0	;volatile
  3608  0488  100E               	skipnc
  3609  0489  1803               	bsf	(270)^0100h,0	;volatile
  3610  048A  140E               	line	553
  3611                           ;C:/Users/lexa/MPLABXProjects/4dLED.X/newmain4dLED_before dots.c: 553:             LATBb
                                 its.LATB5 = on;
  3612                           	rrf	(_on),w
  3613  048B  0C70               	skipc
  3614  048C  1C03               	bcf	(269)^0100h,5	;volatile
  3615  048D  128D               	skipnc
  3616  048E  1803               	bsf	(269)^0100h,5	;volatile
  3617  048F  168D               	line	554
  3618                           ;C:/Users/lexa/MPLABXProjects/4dLED.X/newmain4dLED_before dots.c: 554:             LATCb
                                 its.LATC3 = on;
  3619                           	rrf	(_on),w
  3620  0490  0C70               	skipc
  3621  0491  1C03               	bcf	(270)^0100h,3	;volatile
  3622  0492  118E               	skipnc
  3623  0493  1803               	bsf	(270)^0100h,3	;volatile
  3624  0494  158E               	line	555
  3625                           ;C:/Users/lexa/MPLABXProjects/4dLED.X/newmain4dLED_before dots.c: 555:             break
                                 ;
  3626                           	goto	l212
  3627  0495  2EA3               	line	556
  3628                           ;C:/Users/lexa/MPLABXProjects/4dLED.X/newmain4dLED_before dots.c: 556:         case 134:
                                 
  3629                           	
  3630                           l202:	
  3631  0496                     	line	557
  3632                           	
  3633                           l1528:	
  3634  0496                     ;C:/Users/lexa/MPLABXProjects/4dLED.X/newmain4dLED_before dots.c: 557:             LATAb
                                 its.LATA5 = on;
  3635                           	rrf	(_on),w
  3636  0496  0C70               	movlb 2	; select bank2
  3637  0497  0022               	skipc
  3638  0498  1C03               	bcf	(268)^0100h,5	;volatile
  3639  0499  128C               	skipnc
  3640  049A  1803               	bsf	(268)^0100h,5	;volatile
  3641  049B  168C               	line	558
  3642                           ;C:/Users/lexa/MPLABXProjects/4dLED.X/newmain4dLED_before dots.c: 558:             LATCb
                                 its.LATC2 = off;
  3643                           	rrf	(_off),w
  3644  049C  0C79               	skipc
  3645  049D  1C03               	bcf	(270)^0100h,2	;volatile
  3646  049E  110E               	skipnc
  3647  049F  1803               	bsf	(270)^0100h,2	;volatile
  3648  04A0  150E               	line	559
  3649                           ;C:/Users/lexa/MPLABXProjects/4dLED.X/newmain4dLED_before dots.c: 559:             LATAb
                                 its.LATA4 = on;
  3650                           	rrf	(_on),w
  3651  04A1  0C70               	skipc
  3652  04A2  1C03               	bcf	(268)^0100h,4	;volatile
  3653  04A3  120C               	skipnc
  3654  04A4  1803               	bsf	(268)^0100h,4	;volatile
  3655  04A5  160C               	line	560
  3656                           ;C:/Users/lexa/MPLABXProjects/4dLED.X/newmain4dLED_before dots.c: 560:             LATCb
                                 its.LATC1 = on;
  3657                           	rrf	(_on),w
  3658  04A6  0C70               	skipc
  3659  04A7  1C03               	bcf	(270)^0100h,1	;volatile
  3660  04A8  108E               	skipnc
  3661  04A9  1803               	bsf	(270)^0100h,1	;volatile
  3662  04AA  148E               	line	561
  3663                           ;C:/Users/lexa/MPLABXProjects/4dLED.X/newmain4dLED_before dots.c: 561:             LATAb
                                 its.LATA2 = on;
  3664                           	rrf	(_on),w
  3665  04AB  0C70               	skipc
  3666  04AC  1C03               	bcf	(268)^0100h,2	;volatile
  3667  04AD  110C               	skipnc
  3668  04AE  1803               	bsf	(268)^0100h,2	;volatile
  3669  04AF  150C               	line	562
  3670                           ;C:/Users/lexa/MPLABXProjects/4dLED.X/newmain4dLED_before dots.c: 562:             LATCb
                                 its.LATC0 = on;
  3671                           	rrf	(_on),w
  3672  04B0  0C70               	skipc
  3673  04B1  1C03               	bcf	(270)^0100h,0	;volatile
  3674  04B2  100E               	skipnc
  3675  04B3  1803               	bsf	(270)^0100h,0	;volatile
  3676  04B4  140E               	line	563
  3677                           ;C:/Users/lexa/MPLABXProjects/4dLED.X/newmain4dLED_before dots.c: 563:             LATBb
                                 its.LATB5 = on;
  3678                           	rrf	(_on),w
  3679  04B5  0C70               	skipc
  3680  04B6  1C03               	bcf	(269)^0100h,5	;volatile
  3681  04B7  128D               	skipnc
  3682  04B8  1803               	bsf	(269)^0100h,5	;volatile
  3683  04B9  168D               	line	564
  3684                           ;C:/Users/lexa/MPLABXProjects/4dLED.X/newmain4dLED_before dots.c: 564:             LATCb
                                 its.LATC3 = on;
  3685                           	rrf	(_on),w
  3686  04BA  0C70               	skipc
  3687  04BB  1C03               	bcf	(270)^0100h,3	;volatile
  3688  04BC  118E               	skipnc
  3689  04BD  1803               	bsf	(270)^0100h,3	;volatile
  3690  04BE  158E               	line	565
  3691                           ;C:/Users/lexa/MPLABXProjects/4dLED.X/newmain4dLED_before dots.c: 565:             break
                                 ;
  3692                           	goto	l212
  3693  04BF  2EA3               	line	566
  3694                           ;C:/Users/lexa/MPLABXProjects/4dLED.X/newmain4dLED_before dots.c: 566:         case 135:
                                 
  3695                           	
  3696                           l203:	
  3697  04C0                     	line	567
  3698                           	
  3699                           l1530:	
  3700  04C0                     ;C:/Users/lexa/MPLABXProjects/4dLED.X/newmain4dLED_before dots.c: 567:             LATAb
                                 its.LATA5 = on;
  3701                           	rrf	(_on),w
  3702  04C0  0C70               	movlb 2	; select bank2
  3703  04C1  0022               	skipc
  3704  04C2  1C03               	bcf	(268)^0100h,5	;volatile
  3705  04C3  128C               	skipnc
  3706  04C4  1803               	bsf	(268)^0100h,5	;volatile
  3707  04C5  168C               	line	568
  3708                           ;C:/Users/lexa/MPLABXProjects/4dLED.X/newmain4dLED_before dots.c: 568:             LATCb
                                 its.LATC2 = on;
  3709                           	rrf	(_on),w
  3710  04C6  0C70               	skipc
  3711  04C7  1C03               	bcf	(270)^0100h,2	;volatile
  3712  04C8  110E               	skipnc
  3713  04C9  1803               	bsf	(270)^0100h,2	;volatile
  3714  04CA  150E               	line	569
  3715                           ;C:/Users/lexa/MPLABXProjects/4dLED.X/newmain4dLED_before dots.c: 569:             LATAb
                                 its.LATA4 = on;
  3716                           	rrf	(_on),w
  3717  04CB  0C70               	skipc
  3718  04CC  1C03               	bcf	(268)^0100h,4	;volatile
  3719  04CD  120C               	skipnc
  3720  04CE  1803               	bsf	(268)^0100h,4	;volatile
  3721  04CF  160C               	line	570
  3722                           ;C:/Users/lexa/MPLABXProjects/4dLED.X/newmain4dLED_before dots.c: 570:             LATCb
                                 its.LATC1 = off;
  3723                           	rrf	(_off),w
  3724  04D0  0C79               	skipc
  3725  04D1  1C03               	bcf	(270)^0100h,1	;volatile
  3726  04D2  108E               	skipnc
  3727  04D3  1803               	bsf	(270)^0100h,1	;volatile
  3728  04D4  148E               	line	571
  3729                           ;C:/Users/lexa/MPLABXProjects/4dLED.X/newmain4dLED_before dots.c: 571:             LATAb
                                 its.LATA2 = off;
  3730                           	rrf	(_off),w
  3731  04D5  0C79               	skipc
  3732  04D6  1C03               	bcf	(268)^0100h,2	;volatile
  3733  04D7  110C               	skipnc
  3734  04D8  1803               	bsf	(268)^0100h,2	;volatile
  3735  04D9  150C               	line	572
  3736                           ;C:/Users/lexa/MPLABXProjects/4dLED.X/newmain4dLED_before dots.c: 572:             LATCb
                                 its.LATC0 = off;
  3737                           	rrf	(_off),w
  3738  04DA  0C79               	skipc
  3739  04DB  1C03               	bcf	(270)^0100h,0	;volatile
  3740  04DC  100E               	skipnc
  3741  04DD  1803               	bsf	(270)^0100h,0	;volatile
  3742  04DE  140E               	line	573
  3743                           ;C:/Users/lexa/MPLABXProjects/4dLED.X/newmain4dLED_before dots.c: 573:             LATBb
                                 its.LATB5 = off;
  3744                           	rrf	(_off),w
  3745  04DF  0C79               	skipc
  3746  04E0  1C03               	bcf	(269)^0100h,5	;volatile
  3747  04E1  128D               	skipnc
  3748  04E2  1803               	bsf	(269)^0100h,5	;volatile
  3749  04E3  168D               	line	574
  3750                           ;C:/Users/lexa/MPLABXProjects/4dLED.X/newmain4dLED_before dots.c: 574:             LATCb
                                 its.LATC3 = on;
  3751                           	rrf	(_on),w
  3752  04E4  0C70               	skipc
  3753  04E5  1C03               	bcf	(270)^0100h,3	;volatile
  3754  04E6  118E               	skipnc
  3755  04E7  1803               	bsf	(270)^0100h,3	;volatile
  3756  04E8  158E               	line	575
  3757                           ;C:/Users/lexa/MPLABXProjects/4dLED.X/newmain4dLED_before dots.c: 575:             break
                                 ;
  3758                           	goto	l212
  3759  04E9  2EA3               	line	576
  3760                           ;C:/Users/lexa/MPLABXProjects/4dLED.X/newmain4dLED_before dots.c: 576:         case 136:
                                 
  3761                           	
  3762                           l204:	
  3763  04EA                     	line	577
  3764                           	
  3765                           l1532:	
  3766  04EA                     ;C:/Users/lexa/MPLABXProjects/4dLED.X/newmain4dLED_before dots.c: 577:             LATAb
                                 its.LATA5 = on;
  3767                           	rrf	(_on),w
  3768  04EA  0C70               	movlb 2	; select bank2
  3769  04EB  0022               	skipc
  3770  04EC  1C03               	bcf	(268)^0100h,5	;volatile
  3771  04ED  128C               	skipnc
  3772  04EE  1803               	bsf	(268)^0100h,5	;volatile
  3773  04EF  168C               	line	578
  3774                           ;C:/Users/lexa/MPLABXProjects/4dLED.X/newmain4dLED_before dots.c: 578:             LATCb
                                 its.LATC2 = on;
  3775                           	rrf	(_on),w
  3776  04F0  0C70               	skipc
  3777  04F1  1C03               	bcf	(270)^0100h,2	;volatile
  3778  04F2  110E               	skipnc
  3779  04F3  1803               	bsf	(270)^0100h,2	;volatile
  3780  04F4  150E               	line	579
  3781                           ;C:/Users/lexa/MPLABXProjects/4dLED.X/newmain4dLED_before dots.c: 579:             LATAb
                                 its.LATA4 = on;
  3782                           	rrf	(_on),w
  3783  04F5  0C70               	skipc
  3784  04F6  1C03               	bcf	(268)^0100h,4	;volatile
  3785  04F7  120C               	skipnc
  3786  04F8  1803               	bsf	(268)^0100h,4	;volatile
  3787  04F9  160C               	line	580
  3788                           ;C:/Users/lexa/MPLABXProjects/4dLED.X/newmain4dLED_before dots.c: 580:             LATCb
                                 its.LATC1 = on;
  3789                           	rrf	(_on),w
  3790  04FA  0C70               	skipc
  3791  04FB  1C03               	bcf	(270)^0100h,1	;volatile
  3792  04FC  108E               	skipnc
  3793  04FD  1803               	bsf	(270)^0100h,1	;volatile
  3794  04FE  148E               	line	581
  3795                           ;C:/Users/lexa/MPLABXProjects/4dLED.X/newmain4dLED_before dots.c: 581:             LATAb
                                 its.LATA2 = on;
  3796                           	rrf	(_on),w
  3797  04FF  0C70               	skipc
  3798  0500  1C03               	bcf	(268)^0100h,2	;volatile
  3799  0501  110C               	skipnc
  3800  0502  1803               	bsf	(268)^0100h,2	;volatile
  3801  0503  150C               	line	582
  3802                           ;C:/Users/lexa/MPLABXProjects/4dLED.X/newmain4dLED_before dots.c: 582:             LATCb
                                 its.LATC0 = on;
  3803                           	rrf	(_on),w
  3804  0504  0C70               	skipc
  3805  0505  1C03               	bcf	(270)^0100h,0	;volatile
  3806  0506  100E               	skipnc
  3807  0507  1803               	bsf	(270)^0100h,0	;volatile
  3808  0508  140E               	line	583
  3809                           ;C:/Users/lexa/MPLABXProjects/4dLED.X/newmain4dLED_before dots.c: 583:             LATBb
                                 its.LATB5 = on;
  3810                           	rrf	(_on),w
  3811  0509  0C70               	skipc
  3812  050A  1C03               	bcf	(269)^0100h,5	;volatile
  3813  050B  128D               	skipnc
  3814  050C  1803               	bsf	(269)^0100h,5	;volatile
  3815  050D  168D               	line	584
  3816                           ;C:/Users/lexa/MPLABXProjects/4dLED.X/newmain4dLED_before dots.c: 584:             LATCb
                                 its.LATC3 = on;
  3817                           	rrf	(_on),w
  3818  050E  0C70               	skipc
  3819  050F  1C03               	bcf	(270)^0100h,3	;volatile
  3820  0510  118E               	skipnc
  3821  0511  1803               	bsf	(270)^0100h,3	;volatile
  3822  0512  158E               	line	585
  3823                           ;C:/Users/lexa/MPLABXProjects/4dLED.X/newmain4dLED_before dots.c: 585:             break
                                 ;
  3824                           	goto	l212
  3825  0513  2EA3               	line	586
  3826                           ;C:/Users/lexa/MPLABXProjects/4dLED.X/newmain4dLED_before dots.c: 586:         case 137:
                                 
  3827                           	
  3828                           l205:	
  3829  0514                     	line	587
  3830                           	
  3831                           l1534:	
  3832  0514                     ;C:/Users/lexa/MPLABXProjects/4dLED.X/newmain4dLED_before dots.c: 587:             LATAb
                                 its.LATA5 = on;
  3833                           	rrf	(_on),w
  3834  0514  0C70               	movlb 2	; select bank2
  3835  0515  0022               	skipc
  3836  0516  1C03               	bcf	(268)^0100h,5	;volatile
  3837  0517  128C               	skipnc
  3838  0518  1803               	bsf	(268)^0100h,5	;volatile
  3839  0519  168C               	line	588
  3840                           ;C:/Users/lexa/MPLABXProjects/4dLED.X/newmain4dLED_before dots.c: 588:             LATCb
                                 its.LATC2 = on;
  3841                           	rrf	(_on),w
  3842  051A  0C70               	skipc
  3843  051B  1C03               	bcf	(270)^0100h,2	;volatile
  3844  051C  110E               	skipnc
  3845  051D  1803               	bsf	(270)^0100h,2	;volatile
  3846  051E  150E               	line	589
  3847                           ;C:/Users/lexa/MPLABXProjects/4dLED.X/newmain4dLED_before dots.c: 589:             LATAb
                                 its.LATA4 = on;
  3848                           	rrf	(_on),w
  3849  051F  0C70               	skipc
  3850  0520  1C03               	bcf	(268)^0100h,4	;volatile
  3851  0521  120C               	skipnc
  3852  0522  1803               	bsf	(268)^0100h,4	;volatile
  3853  0523  160C               	line	590
  3854                           ;C:/Users/lexa/MPLABXProjects/4dLED.X/newmain4dLED_before dots.c: 590:             LATCb
                                 its.LATC1 = on;
  3855                           	rrf	(_on),w
  3856  0524  0C70               	skipc
  3857  0525  1C03               	bcf	(270)^0100h,1	;volatile
  3858  0526  108E               	skipnc
  3859  0527  1803               	bsf	(270)^0100h,1	;volatile
  3860  0528  148E               	line	591
  3861                           ;C:/Users/lexa/MPLABXProjects/4dLED.X/newmain4dLED_before dots.c: 591:             LATAb
                                 its.LATA2 = off;
  3862                           	rrf	(_off),w
  3863  0529  0C79               	skipc
  3864  052A  1C03               	bcf	(268)^0100h,2	;volatile
  3865  052B  110C               	skipnc
  3866  052C  1803               	bsf	(268)^0100h,2	;volatile
  3867  052D  150C               	line	592
  3868                           ;C:/Users/lexa/MPLABXProjects/4dLED.X/newmain4dLED_before dots.c: 592:             LATCb
                                 its.LATC0 = on;
  3869                           	rrf	(_on),w
  3870  052E  0C70               	skipc
  3871  052F  1C03               	bcf	(270)^0100h,0	;volatile
  3872  0530  100E               	skipnc
  3873  0531  1803               	bsf	(270)^0100h,0	;volatile
  3874  0532  140E               	line	593
  3875                           ;C:/Users/lexa/MPLABXProjects/4dLED.X/newmain4dLED_before dots.c: 593:             LATBb
                                 its.LATB5 = on;
  3876                           	rrf	(_on),w
  3877  0533  0C70               	skipc
  3878  0534  1C03               	bcf	(269)^0100h,5	;volatile
  3879  0535  128D               	skipnc
  3880  0536  1803               	bsf	(269)^0100h,5	;volatile
  3881  0537  168D               	line	594
  3882                           ;C:/Users/lexa/MPLABXProjects/4dLED.X/newmain4dLED_before dots.c: 594:             LATCb
                                 its.LATC3 = on;
  3883                           	rrf	(_on),w
  3884  0538  0C70               	skipc
  3885  0539  1C03               	bcf	(270)^0100h,3	;volatile
  3886  053A  118E               	skipnc
  3887  053B  1803               	bsf	(270)^0100h,3	;volatile
  3888  053C  158E               	line	595
  3889                           ;C:/Users/lexa/MPLABXProjects/4dLED.X/newmain4dLED_before dots.c: 595:             break
                                 ;
  3890                           	goto	l212
  3891  053D  2EA3               	line	596
  3892                           ;C:/Users/lexa/MPLABXProjects/4dLED.X/newmain4dLED_before dots.c: 596:         case 138:
                                 
  3893                           	
  3894                           l206:	
  3895  053E                     	line	597
  3896                           	
  3897                           l1536:	
  3898  053E                     ;C:/Users/lexa/MPLABXProjects/4dLED.X/newmain4dLED_before dots.c: 597:             LATAb
                                 its.LATA5 = on;
  3899                           	rrf	(_on),w
  3900  053E  0C70               	movlb 2	; select bank2
  3901  053F  0022               	skipc
  3902  0540  1C03               	bcf	(268)^0100h,5	;volatile
  3903  0541  128C               	skipnc
  3904  0542  1803               	bsf	(268)^0100h,5	;volatile
  3905  0543  168C               	line	598
  3906                           ;C:/Users/lexa/MPLABXProjects/4dLED.X/newmain4dLED_before dots.c: 598:             LATCb
                                 its.LATC2 = on;
  3907                           	rrf	(_on),w
  3908  0544  0C70               	skipc
  3909  0545  1C03               	bcf	(270)^0100h,2	;volatile
  3910  0546  110E               	skipnc
  3911  0547  1803               	bsf	(270)^0100h,2	;volatile
  3912  0548  150E               	line	599
  3913                           ;C:/Users/lexa/MPLABXProjects/4dLED.X/newmain4dLED_before dots.c: 599:             LATAb
                                 its.LATA4 = on;
  3914                           	rrf	(_on),w
  3915  0549  0C70               	skipc
  3916  054A  1C03               	bcf	(268)^0100h,4	;volatile
  3917  054B  120C               	skipnc
  3918  054C  1803               	bsf	(268)^0100h,4	;volatile
  3919  054D  160C               	line	600
  3920                           ;C:/Users/lexa/MPLABXProjects/4dLED.X/newmain4dLED_before dots.c: 600:             LATCb
                                 its.LATC1 = off;
  3921                           	rrf	(_off),w
  3922  054E  0C79               	skipc
  3923  054F  1C03               	bcf	(270)^0100h,1	;volatile
  3924  0550  108E               	skipnc
  3925  0551  1803               	bsf	(270)^0100h,1	;volatile
  3926  0552  148E               	line	601
  3927                           ;C:/Users/lexa/MPLABXProjects/4dLED.X/newmain4dLED_before dots.c: 601:             LATAb
                                 its.LATA2 = on;
  3928                           	rrf	(_on),w
  3929  0553  0C70               	skipc
  3930  0554  1C03               	bcf	(268)^0100h,2	;volatile
  3931  0555  110C               	skipnc
  3932  0556  1803               	bsf	(268)^0100h,2	;volatile
  3933  0557  150C               	line	602
  3934                           ;C:/Users/lexa/MPLABXProjects/4dLED.X/newmain4dLED_before dots.c: 602:             LATCb
                                 its.LATC0 = on;
  3935                           	rrf	(_on),w
  3936  0558  0C70               	skipc
  3937  0559  1C03               	bcf	(270)^0100h,0	;volatile
  3938  055A  100E               	skipnc
  3939  055B  1803               	bsf	(270)^0100h,0	;volatile
  3940  055C  140E               	line	603
  3941                           ;C:/Users/lexa/MPLABXProjects/4dLED.X/newmain4dLED_before dots.c: 603:             LATBb
                                 its.LATB5 = on;
  3942                           	rrf	(_on),w
  3943  055D  0C70               	skipc
  3944  055E  1C03               	bcf	(269)^0100h,5	;volatile
  3945  055F  128D               	skipnc
  3946  0560  1803               	bsf	(269)^0100h,5	;volatile
  3947  0561  168D               	line	604
  3948                           ;C:/Users/lexa/MPLABXProjects/4dLED.X/newmain4dLED_before dots.c: 604:             LATCb
                                 its.LATC3 = on;
  3949                           	rrf	(_on),w
  3950  0562  0C70               	skipc
  3951  0563  1C03               	bcf	(270)^0100h,3	;volatile
  3952  0564  118E               	skipnc
  3953  0565  1803               	bsf	(270)^0100h,3	;volatile
  3954  0566  158E               	line	605
  3955                           ;C:/Users/lexa/MPLABXProjects/4dLED.X/newmain4dLED_before dots.c: 605:             break
                                 ;
  3956                           	goto	l212
  3957  0567  2EA3               	line	606
  3958                           ;C:/Users/lexa/MPLABXProjects/4dLED.X/newmain4dLED_before dots.c: 606:         case 139:
                                 
  3959                           	
  3960                           l207:	
  3961  0568                     	line	607
  3962                           	
  3963                           l1538:	
  3964  0568                     ;C:/Users/lexa/MPLABXProjects/4dLED.X/newmain4dLED_before dots.c: 607:             LATAb
                                 its.LATA5 = off;
  3965                           	rrf	(_off),w
  3966  0568  0C79               	movlb 2	; select bank2
  3967  0569  0022               	skipc
  3968  056A  1C03               	bcf	(268)^0100h,5	;volatile
  3969  056B  128C               	skipnc
  3970  056C  1803               	bsf	(268)^0100h,5	;volatile
  3971  056D  168C               	line	608
  3972                           ;C:/Users/lexa/MPLABXProjects/4dLED.X/newmain4dLED_before dots.c: 608:             LATCb
                                 its.LATC2 = off;
  3973                           	rrf	(_off),w
  3974  056E  0C79               	skipc
  3975  056F  1C03               	bcf	(270)^0100h,2	;volatile
  3976  0570  110E               	skipnc
  3977  0571  1803               	bsf	(270)^0100h,2	;volatile
  3978  0572  150E               	line	609
  3979                           ;C:/Users/lexa/MPLABXProjects/4dLED.X/newmain4dLED_before dots.c: 609:             LATAb
                                 its.LATA4 = on;
  3980                           	rrf	(_on),w
  3981  0573  0C70               	skipc
  3982  0574  1C03               	bcf	(268)^0100h,4	;volatile
  3983  0575  120C               	skipnc
  3984  0576  1803               	bsf	(268)^0100h,4	;volatile
  3985  0577  160C               	line	610
  3986                           ;C:/Users/lexa/MPLABXProjects/4dLED.X/newmain4dLED_before dots.c: 610:             LATCb
                                 its.LATC1 = on;
  3987                           	rrf	(_on),w
  3988  0578  0C70               	skipc
  3989  0579  1C03               	bcf	(270)^0100h,1	;volatile
  3990  057A  108E               	skipnc
  3991  057B  1803               	bsf	(270)^0100h,1	;volatile
  3992  057C  148E               	line	611
  3993                           ;C:/Users/lexa/MPLABXProjects/4dLED.X/newmain4dLED_before dots.c: 611:             LATAb
                                 its.LATA2 = on;
  3994                           	rrf	(_on),w
  3995  057D  0C70               	skipc
  3996  057E  1C03               	bcf	(268)^0100h,2	;volatile
  3997  057F  110C               	skipnc
  3998  0580  1803               	bsf	(268)^0100h,2	;volatile
  3999  0581  150C               	line	612
  4000                           ;C:/Users/lexa/MPLABXProjects/4dLED.X/newmain4dLED_before dots.c: 612:             LATCb
                                 its.LATC0 = on;
  4001                           	rrf	(_on),w
  4002  0582  0C70               	skipc
  4003  0583  1C03               	bcf	(270)^0100h,0	;volatile
  4004  0584  100E               	skipnc
  4005  0585  1803               	bsf	(270)^0100h,0	;volatile
  4006  0586  140E               	line	613
  4007                           ;C:/Users/lexa/MPLABXProjects/4dLED.X/newmain4dLED_before dots.c: 613:             LATBb
                                 its.LATB5 = on;
  4008                           	rrf	(_on),w
  4009  0587  0C70               	skipc
  4010  0588  1C03               	bcf	(269)^0100h,5	;volatile
  4011  0589  128D               	skipnc
  4012  058A  1803               	bsf	(269)^0100h,5	;volatile
  4013  058B  168D               	line	614
  4014                           ;C:/Users/lexa/MPLABXProjects/4dLED.X/newmain4dLED_before dots.c: 614:             LATCb
                                 its.LATC3 = on;
  4015                           	rrf	(_on),w
  4016  058C  0C70               	skipc
  4017  058D  1C03               	bcf	(270)^0100h,3	;volatile
  4018  058E  118E               	skipnc
  4019  058F  1803               	bsf	(270)^0100h,3	;volatile
  4020  0590  158E               	line	615
  4021                           ;C:/Users/lexa/MPLABXProjects/4dLED.X/newmain4dLED_before dots.c: 615:             break
                                 ;
  4022                           	goto	l212
  4023  0591  2EA3               	line	616
  4024                           ;C:/Users/lexa/MPLABXProjects/4dLED.X/newmain4dLED_before dots.c: 616:         case 140:
                                 
  4025                           	
  4026                           l208:	
  4027  0592                     	line	617
  4028                           	
  4029                           l1540:	
  4030  0592                     ;C:/Users/lexa/MPLABXProjects/4dLED.X/newmain4dLED_before dots.c: 617:             LATAb
                                 its.LATA5 = on;
  4031                           	rrf	(_on),w
  4032  0592  0C70               	movlb 2	; select bank2
  4033  0593  0022               	skipc
  4034  0594  1C03               	bcf	(268)^0100h,5	;volatile
  4035  0595  128C               	skipnc
  4036  0596  1803               	bsf	(268)^0100h,5	;volatile
  4037  0597  168C               	line	618
  4038                           ;C:/Users/lexa/MPLABXProjects/4dLED.X/newmain4dLED_before dots.c: 618:             LATCb
                                 its.LATC2 = off;
  4039                           	rrf	(_off),w
  4040  0598  0C79               	skipc
  4041  0599  1C03               	bcf	(270)^0100h,2	;volatile
  4042  059A  110E               	skipnc
  4043  059B  1803               	bsf	(270)^0100h,2	;volatile
  4044  059C  150E               	line	619
  4045                           ;C:/Users/lexa/MPLABXProjects/4dLED.X/newmain4dLED_before dots.c: 619:             LATAb
                                 its.LATA4 = off;
  4046                           	rrf	(_off),w
  4047  059D  0C79               	skipc
  4048  059E  1C03               	bcf	(268)^0100h,4	;volatile
  4049  059F  120C               	skipnc
  4050  05A0  1803               	bsf	(268)^0100h,4	;volatile
  4051  05A1  160C               	line	620
  4052                           ;C:/Users/lexa/MPLABXProjects/4dLED.X/newmain4dLED_before dots.c: 620:             LATCb
                                 its.LATC1 = on;
  4053                           	rrf	(_on),w
  4054  05A2  0C70               	skipc
  4055  05A3  1C03               	bcf	(270)^0100h,1	;volatile
  4056  05A4  108E               	skipnc
  4057  05A5  1803               	bsf	(270)^0100h,1	;volatile
  4058  05A6  148E               	line	621
  4059                           ;C:/Users/lexa/MPLABXProjects/4dLED.X/newmain4dLED_before dots.c: 621:             LATAb
                                 its.LATA2 = on;
  4060                           	rrf	(_on),w
  4061  05A7  0C70               	skipc
  4062  05A8  1C03               	bcf	(268)^0100h,2	;volatile
  4063  05A9  110C               	skipnc
  4064  05AA  1803               	bsf	(268)^0100h,2	;volatile
  4065  05AB  150C               	line	622
  4066                           ;C:/Users/lexa/MPLABXProjects/4dLED.X/newmain4dLED_before dots.c: 622:             LATCb
                                 its.LATC0 = on;
  4067                           	rrf	(_on),w
  4068  05AC  0C70               	skipc
  4069  05AD  1C03               	bcf	(270)^0100h,0	;volatile
  4070  05AE  100E               	skipnc
  4071  05AF  1803               	bsf	(270)^0100h,0	;volatile
  4072  05B0  140E               	line	623
  4073                           ;C:/Users/lexa/MPLABXProjects/4dLED.X/newmain4dLED_before dots.c: 623:             LATBb
                                 its.LATB5 = off;
  4074                           	rrf	(_off),w
  4075  05B1  0C79               	skipc
  4076  05B2  1C03               	bcf	(269)^0100h,5	;volatile
  4077  05B3  128D               	skipnc
  4078  05B4  1803               	bsf	(269)^0100h,5	;volatile
  4079  05B5  168D               	line	624
  4080                           ;C:/Users/lexa/MPLABXProjects/4dLED.X/newmain4dLED_before dots.c: 624:             LATCb
                                 its.LATC3 = on;
  4081                           	rrf	(_on),w
  4082  05B6  0C70               	skipc
  4083  05B7  1C03               	bcf	(270)^0100h,3	;volatile
  4084  05B8  118E               	skipnc
  4085  05B9  1803               	bsf	(270)^0100h,3	;volatile
  4086  05BA  158E               	line	625
  4087                           ;C:/Users/lexa/MPLABXProjects/4dLED.X/newmain4dLED_before dots.c: 625:             break
                                 ;
  4088                           	goto	l212
  4089  05BB  2EA3               	line	626
  4090                           ;C:/Users/lexa/MPLABXProjects/4dLED.X/newmain4dLED_before dots.c: 626:         case 141:
                                 
  4091                           	
  4092                           l209:	
  4093  05BC                     	line	627
  4094                           	
  4095                           l1542:	
  4096  05BC                     ;C:/Users/lexa/MPLABXProjects/4dLED.X/newmain4dLED_before dots.c: 627:             LATAb
                                 its.LATA5 = off;
  4097                           	rrf	(_off),w
  4098  05BC  0C79               	movlb 2	; select bank2
  4099  05BD  0022               	skipc
  4100  05BE  1C03               	bcf	(268)^0100h,5	;volatile
  4101  05BF  128C               	skipnc
  4102  05C0  1803               	bsf	(268)^0100h,5	;volatile
  4103  05C1  168C               	line	628
  4104                           ;C:/Users/lexa/MPLABXProjects/4dLED.X/newmain4dLED_before dots.c: 628:             LATCb
                                 its.LATC2 = on;
  4105                           	rrf	(_on),w
  4106  05C2  0C70               	skipc
  4107  05C3  1C03               	bcf	(270)^0100h,2	;volatile
  4108  05C4  110E               	skipnc
  4109  05C5  1803               	bsf	(270)^0100h,2	;volatile
  4110  05C6  150E               	line	629
  4111                           ;C:/Users/lexa/MPLABXProjects/4dLED.X/newmain4dLED_before dots.c: 629:             LATAb
                                 its.LATA4 = on;
  4112                           	rrf	(_on),w
  4113  05C7  0C70               	skipc
  4114  05C8  1C03               	bcf	(268)^0100h,4	;volatile
  4115  05C9  120C               	skipnc
  4116  05CA  1803               	bsf	(268)^0100h,4	;volatile
  4117  05CB  160C               	line	630
  4118                           ;C:/Users/lexa/MPLABXProjects/4dLED.X/newmain4dLED_before dots.c: 630:             LATCb
                                 its.LATC1 = on;
  4119                           	rrf	(_on),w
  4120  05CC  0C70               	skipc
  4121  05CD  1C03               	bcf	(270)^0100h,1	;volatile
  4122  05CE  108E               	skipnc
  4123  05CF  1803               	bsf	(270)^0100h,1	;volatile
  4124  05D0  148E               	line	631
  4125                           ;C:/Users/lexa/MPLABXProjects/4dLED.X/newmain4dLED_before dots.c: 631:             LATAb
                                 its.LATA2 = on;
  4126                           	rrf	(_on),w
  4127  05D1  0C70               	skipc
  4128  05D2  1C03               	bcf	(268)^0100h,2	;volatile
  4129  05D3  110C               	skipnc
  4130  05D4  1803               	bsf	(268)^0100h,2	;volatile
  4131  05D5  150C               	line	632
  4132                           ;C:/Users/lexa/MPLABXProjects/4dLED.X/newmain4dLED_before dots.c: 632:             LATCb
                                 its.LATC0 = off;
  4133                           	rrf	(_off),w
  4134  05D6  0C79               	skipc
  4135  05D7  1C03               	bcf	(270)^0100h,0	;volatile
  4136  05D8  100E               	skipnc
  4137  05D9  1803               	bsf	(270)^0100h,0	;volatile
  4138  05DA  140E               	line	633
  4139                           ;C:/Users/lexa/MPLABXProjects/4dLED.X/newmain4dLED_before dots.c: 633:             LATBb
                                 its.LATB5 = on;
  4140                           	rrf	(_on),w
  4141  05DB  0C70               	skipc
  4142  05DC  1C03               	bcf	(269)^0100h,5	;volatile
  4143  05DD  128D               	skipnc
  4144  05DE  1803               	bsf	(269)^0100h,5	;volatile
  4145  05DF  168D               	line	634
  4146                           ;C:/Users/lexa/MPLABXProjects/4dLED.X/newmain4dLED_before dots.c: 634:             LATCb
                                 its.LATC3 = on;
  4147                           	rrf	(_on),w
  4148  05E0  0C70               	skipc
  4149  05E1  1C03               	bcf	(270)^0100h,3	;volatile
  4150  05E2  118E               	skipnc
  4151  05E3  1803               	bsf	(270)^0100h,3	;volatile
  4152  05E4  158E               	line	635
  4153                           ;C:/Users/lexa/MPLABXProjects/4dLED.X/newmain4dLED_before dots.c: 635:             break
                                 ;
  4154                           	goto	l212
  4155  05E5  2EA3               	line	636
  4156                           ;C:/Users/lexa/MPLABXProjects/4dLED.X/newmain4dLED_before dots.c: 636:         case 142:
                                 
  4157                           	
  4158                           l210:	
  4159  05E6                     	line	637
  4160                           	
  4161                           l1544:	
  4162  05E6                     ;C:/Users/lexa/MPLABXProjects/4dLED.X/newmain4dLED_before dots.c: 637:             LATAb
                                 its.LATA5 = on;
  4163                           	rrf	(_on),w
  4164  05E6  0C70               	movlb 2	; select bank2
  4165  05E7  0022               	skipc
  4166  05E8  1C03               	bcf	(268)^0100h,5	;volatile
  4167  05E9  128C               	skipnc
  4168  05EA  1803               	bsf	(268)^0100h,5	;volatile
  4169  05EB  168C               	line	638
  4170                           ;C:/Users/lexa/MPLABXProjects/4dLED.X/newmain4dLED_before dots.c: 638:             LATCb
                                 its.LATC2 = off;
  4171                           	rrf	(_off),w
  4172  05EC  0C79               	skipc
  4173  05ED  1C03               	bcf	(270)^0100h,2	;volatile
  4174  05EE  110E               	skipnc
  4175  05EF  1803               	bsf	(270)^0100h,2	;volatile
  4176  05F0  150E               	line	639
  4177                           ;C:/Users/lexa/MPLABXProjects/4dLED.X/newmain4dLED_before dots.c: 639:             LATAb
                                 its.LATA4 = off;
  4178                           	rrf	(_off),w
  4179  05F1  0C79               	skipc
  4180  05F2  1C03               	bcf	(268)^0100h,4	;volatile
  4181  05F3  120C               	skipnc
  4182  05F4  1803               	bsf	(268)^0100h,4	;volatile
  4183  05F5  160C               	line	640
  4184                           ;C:/Users/lexa/MPLABXProjects/4dLED.X/newmain4dLED_before dots.c: 640:             LATCb
                                 its.LATC1 = on;
  4185                           	rrf	(_on),w
  4186  05F6  0C70               	skipc
  4187  05F7  1C03               	bcf	(270)^0100h,1	;volatile
  4188  05F8  108E               	skipnc
  4189  05F9  1803               	bsf	(270)^0100h,1	;volatile
  4190  05FA  148E               	line	641
  4191                           ;C:/Users/lexa/MPLABXProjects/4dLED.X/newmain4dLED_before dots.c: 641:             LATAb
                                 its.LATA2 = on;
  4192                           	rrf	(_on),w
  4193  05FB  0C70               	skipc
  4194  05FC  1C03               	bcf	(268)^0100h,2	;volatile
  4195  05FD  110C               	skipnc
  4196  05FE  1803               	bsf	(268)^0100h,2	;volatile
  4197  05FF  150C               	line	642
  4198                           ;C:/Users/lexa/MPLABXProjects/4dLED.X/newmain4dLED_before dots.c: 642:             LATCb
                                 its.LATC0 = on;
  4199                           	rrf	(_on),w
  4200  0600  0C70               	skipc
  4201  0601  1C03               	bcf	(270)^0100h,0	;volatile
  4202  0602  100E               	skipnc
  4203  0603  1803               	bsf	(270)^0100h,0	;volatile
  4204  0604  140E               	line	643
  4205                           ;C:/Users/lexa/MPLABXProjects/4dLED.X/newmain4dLED_before dots.c: 643:             LATBb
                                 its.LATB5 = on;
  4206                           	rrf	(_on),w
  4207  0605  0C70               	skipc
  4208  0606  1C03               	bcf	(269)^0100h,5	;volatile
  4209  0607  128D               	skipnc
  4210  0608  1803               	bsf	(269)^0100h,5	;volatile
  4211  0609  168D               	line	644
  4212                           ;C:/Users/lexa/MPLABXProjects/4dLED.X/newmain4dLED_before dots.c: 644:             LATCb
                                 its.LATC3 = on;
  4213                           	rrf	(_on),w
  4214  060A  0C70               	skipc
  4215  060B  1C03               	bcf	(270)^0100h,3	;volatile
  4216  060C  118E               	skipnc
  4217  060D  1803               	bsf	(270)^0100h,3	;volatile
  4218  060E  158E               	line	645
  4219                           ;C:/Users/lexa/MPLABXProjects/4dLED.X/newmain4dLED_before dots.c: 645:             break
                                 ;
  4220                           	goto	l212
  4221  060F  2EA3               	line	646
  4222                           ;C:/Users/lexa/MPLABXProjects/4dLED.X/newmain4dLED_before dots.c: 646:         case 143:
                                 
  4223                           	
  4224                           l211:	
  4225  0610                     	line	647
  4226                           	
  4227                           l1546:	
  4228  0610                     ;C:/Users/lexa/MPLABXProjects/4dLED.X/newmain4dLED_before dots.c: 647:             LATAb
                                 its.LATA5 = on;
  4229                           	rrf	(_on),w
  4230  0610  0C70               	movlb 2	; select bank2
  4231  0611  0022               	skipc
  4232  0612  1C03               	bcf	(268)^0100h,5	;volatile
  4233  0613  128C               	skipnc
  4234  0614  1803               	bsf	(268)^0100h,5	;volatile
  4235  0615  168C               	line	648
  4236                           ;C:/Users/lexa/MPLABXProjects/4dLED.X/newmain4dLED_before dots.c: 648:             LATCb
                                 its.LATC2 = off;
  4237                           	rrf	(_off),w
  4238  0616  0C79               	skipc
  4239  0617  1C03               	bcf	(270)^0100h,2	;volatile
  4240  0618  110E               	skipnc
  4241  0619  1803               	bsf	(270)^0100h,2	;volatile
  4242  061A  150E               	line	649
  4243                           ;C:/Users/lexa/MPLABXProjects/4dLED.X/newmain4dLED_before dots.c: 649:             LATAb
                                 its.LATA4 = off;
  4244                           	rrf	(_off),w
  4245  061B  0C79               	skipc
  4246  061C  1C03               	bcf	(268)^0100h,4	;volatile
  4247  061D  120C               	skipnc
  4248  061E  1803               	bsf	(268)^0100h,4	;volatile
  4249  061F  160C               	line	650
  4250                           ;C:/Users/lexa/MPLABXProjects/4dLED.X/newmain4dLED_before dots.c: 650:             LATCb
                                 its.LATC1 = off;
  4251                           	rrf	(_off),w
  4252  0620  0C79               	skipc
  4253  0621  1C03               	bcf	(270)^0100h,1	;volatile
  4254  0622  108E               	skipnc
  4255  0623  1803               	bsf	(270)^0100h,1	;volatile
  4256  0624  148E               	line	651
  4257                           ;C:/Users/lexa/MPLABXProjects/4dLED.X/newmain4dLED_before dots.c: 651:             LATAb
                                 its.LATA2 = on;
  4258                           	rrf	(_on),w
  4259  0625  0C70               	skipc
  4260  0626  1C03               	bcf	(268)^0100h,2	;volatile
  4261  0627  110C               	skipnc
  4262  0628  1803               	bsf	(268)^0100h,2	;volatile
  4263  0629  150C               	line	652
  4264                           ;C:/Users/lexa/MPLABXProjects/4dLED.X/newmain4dLED_before dots.c: 652:             LATCb
                                 its.LATC0 = on;
  4265                           	rrf	(_on),w
  4266  062A  0C70               	skipc
  4267  062B  1C03               	bcf	(270)^0100h,0	;volatile
  4268  062C  100E               	skipnc
  4269  062D  1803               	bsf	(270)^0100h,0	;volatile
  4270  062E  140E               	line	653
  4271                           ;C:/Users/lexa/MPLABXProjects/4dLED.X/newmain4dLED_before dots.c: 653:             LATBb
                                 its.LATB5 = on;
  4272                           	rrf	(_on),w
  4273  062F  0C70               	skipc
  4274  0630  1C03               	bcf	(269)^0100h,5	;volatile
  4275  0631  128D               	skipnc
  4276  0632  1803               	bsf	(269)^0100h,5	;volatile
  4277  0633  168D               	line	654
  4278                           ;C:/Users/lexa/MPLABXProjects/4dLED.X/newmain4dLED_before dots.c: 654:             LATCb
                                 its.LATC3 = on;
  4279                           	rrf	(_on),w
  4280  0634  0C70               	skipc
  4281  0635  1C03               	bcf	(270)^0100h,3	;volatile
  4282  0636  118E               	skipnc
  4283  0637  1803               	bsf	(270)^0100h,3	;volatile
  4284  0638  158E               	line	655
  4285                           ;C:/Users/lexa/MPLABXProjects/4dLED.X/newmain4dLED_before dots.c: 655:             break
                                 ;
  4286                           	goto	l212
  4287  0639  2EA3               	line	656
  4288                           	
  4289                           l1548:	
  4290  063A                     ;C:/Users/lexa/MPLABXProjects/4dLED.X/newmain4dLED_before dots.c: 656:     }
  4291                           	goto	l212
  4292  063A  2EA3               	
  4293                           l178:	
  4294  063B                     	
  4295                           l1550:	
  4296  063B                     	; Switch on 2 bytes has been partitioned into a top level switch of size 1, and 1 sub-s
                                 witches
  4297                           ; Switch size 1, requested type "space"
  4298                           ; Number of cases is 1, Range of values is 0 to 0
  4299                           ; switch strategies available:
  4300                           ; Name         Instructions Cycles
  4301                           ; simple_byte            4     3 (average)
  4302                           ; direct_byte            8     6 (fixed)
  4303                           ; jumptable            260     6 (fixed)
  4304                           ;	Chosen strategy is simple_byte
  4305                           
  4306                           	movlb 0	; select bank0
  4307  063B  0020               	movf (display@x+1),w
  4308  063C  0831               	opt asmopt_push
  4309                           	opt asmopt_off
  4310                           	xorlw	0^0	; case 0
  4311  063D  3A00               	skipnz
  4312  063E  1903               	goto	l1832
  4313  063F  2E41               	goto	l212
  4314  0640  2EA3               	opt asmopt_pop
  4315                           	
  4316                           l1832:	
  4317  0641                     ; Switch size 1, requested type "space"
  4318                           ; Number of cases is 32, Range of values is 0 to 143
  4319                           ; switch strategies available:
  4320                           ; Name         Instructions Cycles
  4321                           ; simple_byte           97    49 (average)
  4322                           ; jumptable            260     6 (fixed)
  4323                           ;	Chosen strategy is simple_byte
  4324                           
  4325                           	movf (display@x),w
  4326  0641  0830               	opt asmopt_push
  4327                           	opt asmopt_off
  4328                           	xorlw	0^0	; case 0
  4329  0642  3A00               	skipnz
  4330  0643  1903               	goto	l1484
  4331  0644  28FA               	xorlw	1^0	; case 1
  4332  0645  3A01               	skipnz
  4333  0646  1903               	goto	l1486
  4334  0647  2924               	xorlw	2^1	; case 2
  4335  0648  3A03               	skipnz
  4336  0649  1903               	goto	l1488
  4337  064A  294E               	xorlw	3^2	; case 3
  4338  064B  3A01               	skipnz
  4339  064C  1903               	goto	l1490
  4340  064D  2978               	xorlw	4^3	; case 4
  4341  064E  3A07               	skipnz
  4342  064F  1903               	goto	l1492
  4343  0650  29A2               	xorlw	5^4	; case 5
  4344  0651  3A01               	skipnz
  4345  0652  1903               	goto	l1494
  4346  0653  29CC               	xorlw	6^5	; case 6
  4347  0654  3A03               	skipnz
  4348  0655  1903               	goto	l1496
  4349  0656  29F6               	xorlw	7^6	; case 7
  4350  0657  3A01               	skipnz
  4351  0658  1903               	goto	l1498
  4352  0659  2A20               	xorlw	8^7	; case 8
  4353  065A  3A0F               	skipnz
  4354  065B  1903               	goto	l1500
  4355  065C  2A4A               	xorlw	9^8	; case 9
  4356  065D  3A01               	skipnz
  4357  065E  1903               	goto	l1502
  4358  065F  2A74               	xorlw	10^9	; case 10
  4359  0660  3A03               	skipnz
  4360  0661  1903               	goto	l1504
  4361  0662  2A9E               	xorlw	11^10	; case 11
  4362  0663  3A01               	skipnz
  4363  0664  1903               	goto	l1506
  4364  0665  2AC8               	xorlw	12^11	; case 12
  4365  0666  3A07               	skipnz
  4366  0667  1903               	goto	l1508
  4367  0668  2AF2               	xorlw	13^12	; case 13
  4368  0669  3A01               	skipnz
  4369  066A  1903               	goto	l1510
  4370  066B  2B1C               	xorlw	14^13	; case 14
  4371  066C  3A03               	skipnz
  4372  066D  1903               	goto	l1512
  4373  066E  2B46               	xorlw	15^14	; case 15
  4374  066F  3A01               	skipnz
  4375  0670  1903               	goto	l1514
  4376  0671  2B70               	xorlw	128^15	; case 128
  4377  0672  3A8F               	skipnz
  4378  0673  1903               	goto	l1516
  4379  0674  2B9A               	xorlw	129^128	; case 129
  4380  0675  3A01               	skipnz
  4381  0676  1903               	goto	l1518
  4382  0677  2BC4               	xorlw	130^129	; case 130
  4383  0678  3A03               	skipnz
  4384  0679  1903               	goto	l1520
  4385  067A  2BEE               	xorlw	131^130	; case 131
  4386  067B  3A01               	skipnz
  4387  067C  1903               	goto	l1522
  4388  067D  2C18               	xorlw	132^131	; case 132
  4389  067E  3A07               	skipnz
  4390  067F  1903               	goto	l1524
  4391  0680  2C42               	xorlw	133^132	; case 133
  4392  0681  3A01               	skipnz
  4393  0682  1903               	goto	l1526
  4394  0683  2C6C               	xorlw	134^133	; case 134
  4395  0684  3A03               	skipnz
  4396  0685  1903               	goto	l1528
  4397  0686  2C96               	xorlw	135^134	; case 135
  4398  0687  3A01               	skipnz
  4399  0688  1903               	goto	l1530
  4400  0689  2CC0               	xorlw	136^135	; case 136
  4401  068A  3A0F               	skipnz
  4402  068B  1903               	goto	l1532
  4403  068C  2CEA               	xorlw	137^136	; case 137
  4404  068D  3A01               	skipnz
  4405  068E  1903               	goto	l1534
  4406  068F  2D14               	xorlw	138^137	; case 138
  4407  0690  3A03               	skipnz
  4408  0691  1903               	goto	l1536
  4409  0692  2D3E               	xorlw	139^138	; case 139
  4410  0693  3A01               	skipnz
  4411  0694  1903               	goto	l1538
  4412  0695  2D68               	xorlw	140^139	; case 140
  4413  0696  3A07               	skipnz
  4414  0697  1903               	goto	l1540
  4415  0698  2D92               	xorlw	141^140	; case 141
  4416  0699  3A01               	skipnz
  4417  069A  1903               	goto	l1542
  4418  069B  2DBC               	xorlw	142^141	; case 142
  4419  069C  3A03               	skipnz
  4420  069D  1903               	goto	l1544
  4421  069E  2DE6               	xorlw	143^142	; case 143
  4422  069F  3A01               	skipnz
  4423  06A0  1903               	goto	l1546
  4424  06A1  2E10               	goto	l212
  4425  06A2  2EA3               	opt asmopt_pop
  4426                           
  4427                           	
  4428                           l180:	
  4429  06A3                     	line	657
  4430                           	
  4431                           l212:	
  4432  06A3                     	return
  4433  06A3  0008               	opt stack 0
  4434                           GLOBAL	__end_of_display
  4435                           	__end_of_display:
  4436  06A4                     	signat	_display,4217
  4437                           	global	_myIsr
  4438                           
  4439 ;; *************** function _myIsr *****************
  4440 ;; Defined at:
  4441 ;;		line 86 in file "C:/Users/lexa/MPLABXProjects/4dLED.X/newmain4dLED_before dots.c"
  4442 ;; Parameters:    Size  Location     Type
  4443 ;;		None
  4444 ;; Auto vars:     Size  Location     Type
  4445 ;;		None
  4446 ;; Return value:  Size  Location     Type
  4447 ;;                  1    wreg      void 
  4448 ;; Registers used:
  4449 ;;		wreg, fsr0l, fsr0h, status,2, status,0
  4450 ;; Tracked objects:
  4451 ;;		On entry : 0/0
  4452 ;;		On exit  : 0/0
  4453 ;;		Unchanged: 0/0
  4454 ;; Data sizes:     COMMON   BANK0   BANK1   BANK2
  4455 ;;      Params:         0       0       0       0
  4456 ;;      Locals:         0       0       0       0
  4457 ;;      Temps:          3       0       0       0
  4458 ;;      Totals:         3       0       0       0
  4459 ;;Total ram usage:        3 bytes
  4460 ;; Hardware stack levels used:    1
  4461 ;; This function calls:
  4462 ;;		Nothing
  4463 ;; This function is called by:
  4464 ;;		Interrupt level 1
  4465 ;; This function uses a non-reentrant model
  4466 ;;
  4467                           psect	intentry,class=CODE,delta=2
  4468                           global __pintentry
  4469                           __pintentry:
  4470  0004                     psect	intentry
  4471                           	file	"C:/Users/lexa/MPLABXProjects/4dLED.X/newmain4dLED_before dots.c"
  4472                           	line	86
  4473                           	global	__size_of_myIsr
  4474                           	__size_of_myIsr	equ	__end_of_myIsr-_myIsr
  4475  00A4                     	
  4476                           _myIsr:	
  4477  0004                     ;incstack = 0
  4478                           	opt	stack 14
  4479                           	bsf int$flags,0 ;set compiler interrupt flag (level 1)
  4480  0004  147E               ; Regs used in _myIsr: [wreg-fsr0h+status,2+status,0]
  4481                           psect	intentry
  4482                           	pagesel	$
  4483  0005  3180               	line	88
  4484                           	
  4485                           i1l1152:	
  4486  0006                     ;C:/Users/lexa/MPLABXProjects/4dLED.X/newmain4dLED_before dots.c: 88:     if (TMR2IF == 
                                 1)
  4487                           	movlb 0	; select bank0
  4488  0006  0020               	btfss	(137/8),(137)&7	;volatile
  4489  0007  1C91               	goto	u18_21
  4490  0008  280A               	goto	u18_20
  4491  0009  280B               u18_21:
  4492  000A                     	goto	i1l1184
  4493  000A  2849               u18_20:
  4494  000B                     	line	90
  4495                           	
  4496                           i1l1154:	
  4497  000B                     ;C:/Users/lexa/MPLABXProjects/4dLED.X/newmain4dLED_before dots.c: 89:     {;C:/Users/lex
                                 a/MPLABXProjects/4dLED.X/newmain4dLED_before dots.c: 90:         if (t < 3)
  4498                           	movlw	low(03h)
  4499  000B  3003               	subwf	(_t),w
  4500  000C  0275               	skipnc
  4501  000D  1803               	goto	u19_21
  4502  000E  2810               	goto	u19_20
  4503  000F  2811               u19_21:
  4504  0010                     	goto	i1l1158
  4505  0010  2816               u19_20:
  4506  0011                     	line	92
  4507                           	
  4508                           i1l1156:	
  4509  0011                     ;C:/Users/lexa/MPLABXProjects/4dLED.X/newmain4dLED_before dots.c: 91:         {;C:/Users
                                 /lexa/MPLABXProjects/4dLED.X/newmain4dLED_before dots.c: 92:             t++;
  4510                           	movlw	low(01h)
  4511  0011  3001               	movwf	(??_myIsr+0)+0
  4512  0012  00F6               	movf	(??_myIsr+0)+0,w
  4513  0013  0876               	addwf	(_t),f
  4514  0014  07F5               	line	93
  4515                           ;C:/Users/lexa/MPLABXProjects/4dLED.X/newmain4dLED_before dots.c: 93:         }
  4516                           	goto	i1l1160
  4517  0015  2818               	line	94
  4518                           ;C:/Users/lexa/MPLABXProjects/4dLED.X/newmain4dLED_before dots.c: 94:         else
  4519                           	
  4520                           i1l120:	
  4521  0016                     	line	96
  4522                           	
  4523                           i1l1158:	
  4524  0016                     ;C:/Users/lexa/MPLABXProjects/4dLED.X/newmain4dLED_before dots.c: 95:         {;C:/Users
                                 /lexa/MPLABXProjects/4dLED.X/newmain4dLED_before dots.c: 96:             t = 0;
  4525                           	clrf	(_t)
  4526  0016  01F5               	goto	i1l1160
  4527  0017  2818               	line	97
  4528                           ;C:/Users/lexa/MPLABXProjects/4dLED.X/newmain4dLED_before dots.c: 97:         }
  4529                           	
  4530                           i1l121:	
  4531  0018                     	line	99
  4532                           	
  4533                           i1l1160:	
  4534  0018                     ;C:/Users/lexa/MPLABXProjects/4dLED.X/newmain4dLED_before dots.c: 99:         if (no_spi
                                 _timer < 5700)
  4535                           	movlw	016h
  4536  0018  3016               	subwf	(_no_spi_timer+1),w
  4537  0019  0221               	movlw	044h
  4538  001A  3044               	skipnz
  4539  001B  1903               	subwf	(_no_spi_timer),w
  4540  001C  0220               	skipnc
  4541  001D  1803               	goto	u20_21
  4542  001E  2820               	goto	u20_20
  4543  001F  2821               u20_21:
  4544  0020                     	goto	i1l1164
  4545  0020  2826               u20_20:
  4546  0021                     	line	101
  4547                           	
  4548                           i1l1162:	
  4549  0021                     ;C:/Users/lexa/MPLABXProjects/4dLED.X/newmain4dLED_before dots.c: 100:         {;C:/User
                                 s/lexa/MPLABXProjects/4dLED.X/newmain4dLED_before dots.c: 101:             no_spi_timer+
                                 +;
  4550                           	movlw	01h
  4551  0021  3001               	addwf	(_no_spi_timer),f
  4552  0022  07A0               	movlw	0
  4553  0023  3000               	addwfc	(_no_spi_timer+1),f
  4554  0024  3DA1               	line	102
  4555                           ;C:/Users/lexa/MPLABXProjects/4dLED.X/newmain4dLED_before dots.c: 102:         }
  4556                           	goto	i1l1180
  4557  0025  2845               	line	103
  4558                           ;C:/Users/lexa/MPLABXProjects/4dLED.X/newmain4dLED_before dots.c: 103:         else
  4559                           	
  4560                           i1l122:	
  4561  0026                     	line	105
  4562                           	
  4563                           i1l1164:	
  4564  0026                     ;C:/Users/lexa/MPLABXProjects/4dLED.X/newmain4dLED_before dots.c: 104:         {;C:/User
                                 s/lexa/MPLABXProjects/4dLED.X/newmain4dLED_before dots.c: 105:             no_spi_timer 
                                 = 0;
  4565                           	clrf	(_no_spi_timer)
  4566  0026  01A0               	clrf	(_no_spi_timer+1)
  4567  0027  01A1               	line	106
  4568                           	
  4569                           i1l1166:	
  4570  0028                     ;C:/Users/lexa/MPLABXProjects/4dLED.X/newmain4dLED_before dots.c: 106:             no_sp
                                 i = 1;
  4571                           	clrf	(_no_spi)
  4572  0028  01AA               	incf	(_no_spi),f
  4573  0029  0AAA               	line	107
  4574                           	
  4575                           i1l1168:	
  4576  002A                     ;C:/Users/lexa/MPLABXProjects/4dLED.X/newmain4dLED_before dots.c: 107:             if (n
                                 o_spi_counter < 15)
  4577                           	movlw	low(0Fh)
  4578  002A  300F               	subwf	(_no_spi_counter),w
  4579  002B  0272               	skipnc
  4580  002C  1803               	goto	u21_21
  4581  002D  282F               	goto	u21_20
  4582  002E  2830               u21_21:
  4583  002F                     	goto	i1l1172
  4584  002F  2835               u21_20:
  4585  0030                     	line	109
  4586                           	
  4587                           i1l1170:	
  4588  0030                     ;C:/Users/lexa/MPLABXProjects/4dLED.X/newmain4dLED_before dots.c: 108:             {;C:/
                                 Users/lexa/MPLABXProjects/4dLED.X/newmain4dLED_before dots.c: 109:                 no_sp
                                 i_counter++;
  4589                           	movlw	low(01h)
  4590  0030  3001               	movwf	(??_myIsr+0)+0
  4591  0031  00F6               	movf	(??_myIsr+0)+0,w
  4592  0032  0876               	addwf	(_no_spi_counter),f
  4593  0033  07F2               	line	110
  4594                           ;C:/Users/lexa/MPLABXProjects/4dLED.X/newmain4dLED_before dots.c: 110:             }
  4595                           	goto	i1l1180
  4596  0034  2845               	line	111
  4597                           ;C:/Users/lexa/MPLABXProjects/4dLED.X/newmain4dLED_before dots.c: 111:             else

  4598                           	
  4599                           i1l124:	
  4600  0035                     	line	113
  4601                           	
  4602                           i1l1172:	
  4603  0035                     ;C:/Users/lexa/MPLABXProjects/4dLED.X/newmain4dLED_before dots.c: 112:             {;C:/
                                 Users/lexa/MPLABXProjects/4dLED.X/newmain4dLED_before dots.c: 113:                 no_sp
                                 i_counter = 0;
  4604                           	clrf	(_no_spi_counter)
  4605  0035  01F2               	line	114
  4606                           	
  4607                           i1l1174:	
  4608  0036                     ;C:/Users/lexa/MPLABXProjects/4dLED.X/newmain4dLED_before dots.c: 114:                 i
                                 f (no_spi_digit < 3)
  4609                           	movlw	low(03h)
  4610  0036  3003               	subwf	(_no_spi_digit),w
  4611  0037  0271               	skipnc
  4612  0038  1803               	goto	u22_21
  4613  0039  283B               	goto	u22_20
  4614  003A  283C               u22_21:
  4615  003B                     	goto	i1l1178
  4616  003B  2841               u22_20:
  4617  003C                     	line	116
  4618                           	
  4619                           i1l1176:	
  4620  003C                     ;C:/Users/lexa/MPLABXProjects/4dLED.X/newmain4dLED_before dots.c: 115:                 {
                                 ;C:/Users/lexa/MPLABXProjects/4dLED.X/newmain4dLED_before dots.c: 116:                  
                                    no_spi_digit++;
  4621                           	movlw	low(01h)
  4622  003C  3001               	movwf	(??_myIsr+0)+0
  4623  003D  00F6               	movf	(??_myIsr+0)+0,w
  4624  003E  0876               	addwf	(_no_spi_digit),f
  4625  003F  07F1               	line	117
  4626                           ;C:/Users/lexa/MPLABXProjects/4dLED.X/newmain4dLED_before dots.c: 117:                 }
                                 
  4627                           	goto	i1l1180
  4628  0040  2845               	line	118
  4629                           ;C:/Users/lexa/MPLABXProjects/4dLED.X/newmain4dLED_before dots.c: 118:                 e
                                 lse
  4630                           	
  4631                           i1l126:	
  4632  0041                     	line	120
  4633                           	
  4634                           i1l1178:	
  4635  0041                     ;C:/Users/lexa/MPLABXProjects/4dLED.X/newmain4dLED_before dots.c: 119:                 {
                                 ;C:/Users/lexa/MPLABXProjects/4dLED.X/newmain4dLED_before dots.c: 120:                  
                                    no_spi_digit = 0;
  4636                           	clrf	(_no_spi_digit)
  4637  0041  01F1               	goto	i1l1180
  4638  0042  2845               	line	121
  4639                           ;C:/Users/lexa/MPLABXProjects/4dLED.X/newmain4dLED_before dots.c: 121:                 }
                                 
  4640                           	
  4641                           i1l127:	
  4642  0043                     	goto	i1l1180
  4643  0043  2845               	line	122
  4644                           ;C:/Users/lexa/MPLABXProjects/4dLED.X/newmain4dLED_before dots.c: 122:             }
  4645                           	
  4646                           i1l125:	
  4647  0044                     	goto	i1l1180
  4648  0044  2845               	line	123
  4649                           ;C:/Users/lexa/MPLABXProjects/4dLED.X/newmain4dLED_before dots.c: 123:         }
  4650                           	
  4651                           i1l123:	
  4652  0045                     	line	125
  4653                           	
  4654                           i1l1180:	
  4655  0045                     ;C:/Users/lexa/MPLABXProjects/4dLED.X/newmain4dLED_before dots.c: 125:         update = 
                                 1;
  4656                           	clrf	(_update)
  4657  0045  01A9               	incf	(_update),f
  4658  0046  0AA9               	line	126
  4659                           	
  4660                           i1l1182:	
  4661  0047                     ;C:/Users/lexa/MPLABXProjects/4dLED.X/newmain4dLED_before dots.c: 126:         TMR2IF = 
                                 0;
  4662                           	bcf	(137/8),(137)&7	;volatile
  4663  0047  1091               	goto	i1l1184
  4664  0048  2849               	line	127
  4665                           ;C:/Users/lexa/MPLABXProjects/4dLED.X/newmain4dLED_before dots.c: 127:     }
  4666                           	
  4667                           i1l119:	
  4668  0049                     	line	129
  4669                           	
  4670                           i1l1184:	
  4671  0049                     ;C:/Users/lexa/MPLABXProjects/4dLED.X/newmain4dLED_before dots.c: 129:     if (SSP1IF ==
                                  1)
  4672                           	btfss	(139/8),(139)&7	;volatile
  4673  0049  1D91               	goto	u23_21
  4674  004A  284C               	goto	u23_20
  4675  004B  284D               u23_21:
  4676  004C                     	goto	i1l136
  4677  004C  28A6               u23_20:
  4678  004D                     	line	131
  4679                           	
  4680                           i1l1186:	
  4681  004D                     ;C:/Users/lexa/MPLABXProjects/4dLED.X/newmain4dLED_before dots.c: 130:     {;C:/Users/le
                                 xa/MPLABXProjects/4dLED.X/newmain4dLED_before dots.c: 131:         buf = SSPBUF;
  4682                           	movlb 4	; select bank4
  4683  004D  0024               	movf	(529)^0200h,w	;volatile
  4684  004E  0811               	movwf	(??_myIsr+0)+0
  4685  004F  00F6               	clrf	(??_myIsr+0)+0+1
  4686  0050  01F7               	movf	0+(??_myIsr+0)+0,w
  4687  0051  0876               	movlb 0	; select bank0
  4688  0052  0020               	movwf	(_buf)
  4689  0053  00A2               	movf	1+(??_myIsr+0)+0,w
  4690  0054  0877               	movwf	(_buf+1)
  4691  0055  00A3               	line	132
  4692                           	
  4693                           i1l1188:	
  4694  0056                     ;C:/Users/lexa/MPLABXProjects/4dLED.X/newmain4dLED_before dots.c: 132:         temp_digi
                                 t = (buf & 0x0070) >> 4;
  4695                           	movf	(_buf+1),w
  4696  0056  0823               	movwf	(??_myIsr+0)+0+1
  4697  0057  00F7               	movf	(_buf),w
  4698  0058  0822               	movwf	(??_myIsr+0)+0
  4699  0059  00F6               	movlw	04h
  4700  005A  3004               u24_25:
  4701  005B                     	lsrf	(??_myIsr+0)+1,f
  4702  005B  36F7               	rrf	(??_myIsr+0)+0,f
  4703  005C  0CF6               	decfsz	wreg,f
  4704  005D  0B89               	goto	u24_25
  4705  005E  285B               	movf	0+(??_myIsr+0)+0,w
  4706  005F  0876               	andlw	07h
  4707  0060  3907               	movwf	(??_myIsr+2)+0
  4708  0061  00F8               	movf	(??_myIsr+2)+0,w
  4709  0062  0878               	movwf	(_temp_digit)
  4710  0063  00F4               	line	134
  4711                           	
  4712                           i1l1190:	
  4713  0064                     ;C:/Users/lexa/MPLABXProjects/4dLED.X/newmain4dLED_before dots.c: 134:         no_spi_ti
                                 mer = 0;
  4714                           	clrf	(_no_spi_timer)
  4715  0064  01A0               	clrf	(_no_spi_timer+1)
  4716  0065  01A1               	line	135
  4717                           	
  4718                           i1l1192:	
  4719  0066                     ;C:/Users/lexa/MPLABXProjects/4dLED.X/newmain4dLED_before dots.c: 135:         no_spi = 
                                 0;
  4720                           	clrf	(_no_spi)
  4721  0066  01AA               	line	136
  4722                           	
  4723                           i1l1194:	
  4724  0067                     ;C:/Users/lexa/MPLABXProjects/4dLED.X/newmain4dLED_before dots.c: 136:         digit_err
                                 or = 0;
  4725                           	clrf	(_digit_error)
  4726  0067  01F3               	line	138
  4727                           ;C:/Users/lexa/MPLABXProjects/4dLED.X/newmain4dLED_before dots.c: 138:         switch (t
                                 emp_digit)
  4728                           	goto	i1l1204
  4729  0068  288D               	line	140
  4730                           ;C:/Users/lexa/MPLABXProjects/4dLED.X/newmain4dLED_before dots.c: 139:         {;C:/User
                                 s/lexa/MPLABXProjects/4dLED.X/newmain4dLED_before dots.c: 140:             case 1:
  4731                           	
  4732                           i1l130:	
  4733  0069                     	line	141
  4734                           	
  4735                           i1l1196:	
  4736  0069                     ;C:/Users/lexa/MPLABXProjects/4dLED.X/newmain4dLED_before dots.c: 141:                 d
                                 igit1 = (buf & 0x008f);
  4737                           	movlb 0	; select bank0
  4738  0069  0020               	movf	(_buf),w
  4739  006A  0822               	andlw	08Fh
  4740  006B  398F               	movwf	(??_myIsr+0)+0
  4741  006C  00F6               	movf	(??_myIsr+0)+0,w
  4742  006D  0876               	movwf	(_digit1)
  4743  006E  00AF               	line	142
  4744                           ;C:/Users/lexa/MPLABXProjects/4dLED.X/newmain4dLED_before dots.c: 142:                 b
                                 reak;
  4745                           	goto	i1l131
  4746  006F  28A3               	line	143
  4747                           ;C:/Users/lexa/MPLABXProjects/4dLED.X/newmain4dLED_before dots.c: 143:             case 
                                 2:
  4748                           	
  4749                           i1l132:	
  4750  0070                     	line	144
  4751                           	
  4752                           i1l1198:	
  4753  0070                     ;C:/Users/lexa/MPLABXProjects/4dLED.X/newmain4dLED_before dots.c: 144:                 d
                                 igit2 = (buf & 0x008f);
  4754                           	movlb 0	; select bank0
  4755  0070  0020               	movf	(_buf),w
  4756  0071  0822               	andlw	08Fh
  4757  0072  398F               	movwf	(??_myIsr+0)+0
  4758  0073  00F6               	movf	(??_myIsr+0)+0,w
  4759  0074  0876               	movwf	(_digit2)
  4760  0075  00AE               	line	145
  4761                           ;C:/Users/lexa/MPLABXProjects/4dLED.X/newmain4dLED_before dots.c: 145:                 b
                                 reak;
  4762                           	goto	i1l131
  4763  0076  28A3               	line	146
  4764                           ;C:/Users/lexa/MPLABXProjects/4dLED.X/newmain4dLED_before dots.c: 146:             case 
                                 3:
  4765                           	
  4766                           i1l133:	
  4767  0077                     	line	147
  4768                           	
  4769                           i1l1200:	
  4770  0077                     ;C:/Users/lexa/MPLABXProjects/4dLED.X/newmain4dLED_before dots.c: 147:                 d
                                 igit3 = (buf & 0x008f);
  4771                           	movlb 0	; select bank0
  4772  0077  0020               	movf	(_buf),w
  4773  0078  0822               	andlw	08Fh
  4774  0079  398F               	movwf	(??_myIsr+0)+0
  4775  007A  00F6               	movf	(??_myIsr+0)+0,w
  4776  007B  0876               	movwf	(_digit3)
  4777  007C  00AD               	line	148
  4778                           ;C:/Users/lexa/MPLABXProjects/4dLED.X/newmain4dLED_before dots.c: 148:                 b
                                 reak;
  4779                           	goto	i1l131
  4780  007D  28A3               	line	149
  4781                           ;C:/Users/lexa/MPLABXProjects/4dLED.X/newmain4dLED_before dots.c: 149:             case 
                                 4:
  4782                           	
  4783                           i1l134:	
  4784  007E                     	line	150
  4785                           	
  4786                           i1l1202:	
  4787  007E                     ;C:/Users/lexa/MPLABXProjects/4dLED.X/newmain4dLED_before dots.c: 150:                 d
                                 igit4 = (buf & 0x008f);
  4788                           	movlb 0	; select bank0
  4789  007E  0020               	movf	(_buf),w
  4790  007F  0822               	andlw	08Fh
  4791  0080  398F               	movwf	(??_myIsr+0)+0
  4792  0081  00F6               	movf	(??_myIsr+0)+0,w
  4793  0082  0876               	movwf	(_digit4)
  4794  0083  00AC               	line	151
  4795                           ;C:/Users/lexa/MPLABXProjects/4dLED.X/newmain4dLED_before dots.c: 151:                 b
                                 reak;
  4796                           	goto	i1l131
  4797  0084  28A3               	line	152
  4798                           ;C:/Users/lexa/MPLABXProjects/4dLED.X/newmain4dLED_before dots.c: 152:             defau
                                 lt:
  4799                           	
  4800                           i1l135:	
  4801  0085                     	line	153
  4802                           ;C:/Users/lexa/MPLABXProjects/4dLED.X/newmain4dLED_before dots.c: 153:                 d
                                 igit_error = 1;
  4803                           	clrf	(_digit_error)
  4804  0085  01F3               	incf	(_digit_error),f
  4805  0086  0AF3               	line	154
  4806                           ;C:/Users/lexa/MPLABXProjects/4dLED.X/newmain4dLED_before dots.c: 154:                 S
                                 SPEN = 0;
  4807                           	movlb 4	; select bank4
  4808  0087  0024               	bcf	(4269/8)^0200h,(4269)&7	;volatile
  4809  0088  1295               	line	155
  4810                           ;C:/Users/lexa/MPLABXProjects/4dLED.X/newmain4dLED_before dots.c: 155:                 S
                                 SP1CON1bits.WCOL = 0;
  4811                           	bcf	(533)^0200h,7	;volatile
  4812  0089  1395               	line	156
  4813                           ;C:/Users/lexa/MPLABXProjects/4dLED.X/newmain4dLED_before dots.c: 156:                 S
                                 SP1CON1bits.SSPOV = 0;
  4814                           	bcf	(533)^0200h,6	;volatile
  4815  008A  1315               	line	158
  4816                           ;C:/Users/lexa/MPLABXProjects/4dLED.X/newmain4dLED_before dots.c: 158:                 S
                                 SPEN = 1;
  4817                           	bsf	(4269/8)^0200h,(4269)&7	;volatile
  4818  008B  1695               	line	159
  4819                           ;C:/Users/lexa/MPLABXProjects/4dLED.X/newmain4dLED_before dots.c: 159:         }
  4820                           	goto	i1l131
  4821  008C  28A3               	
  4822                           i1l129:	
  4823  008D                     	
  4824                           i1l1204:	
  4825  008D                     	movf	(_temp_digit),w
  4826  008D  0874               	movwf	(??_myIsr+0)+0
  4827  008E  00F6               	clrf	(??_myIsr+0)+0+1
  4828  008F  01F7               	; Switch on 2 bytes has been partitioned into a top level switch of size 1, and 1 sub-s
                                 witches
  4829                           ; Switch size 1, requested type "space"
  4830                           ; Number of cases is 1, Range of values is 0 to 0
  4831                           ; switch strategies available:
  4832                           ; Name         Instructions Cycles
  4833                           ; simple_byte            4     3 (average)
  4834                           ; direct_byte            8     6 (fixed)
  4835                           ; jumptable            260     6 (fixed)
  4836                           ;	Chosen strategy is simple_byte
  4837                           
  4838                           	movf 1+(??_myIsr+0)+0,w
  4839  0090  0877               	opt asmopt_push
  4840                           	opt asmopt_off
  4841                           	xorlw	0^0	; case 0
  4842  0091  3A00               	skipnz
  4843  0092  1903               	goto	i1l1834
  4844  0093  2895               	goto	i1l135
  4845  0094  2885               	opt asmopt_pop
  4846                           	
  4847                           i1l1834:	
  4848  0095                     ; Switch size 1, requested type "space"
  4849                           ; Number of cases is 4, Range of values is 1 to 4
  4850                           ; switch strategies available:
  4851                           ; Name         Instructions Cycles
  4852                           ; simple_byte           13     7 (average)
  4853                           ; direct_byte           17     9 (fixed)
  4854                           ; jumptable            263     9 (fixed)
  4855                           ;	Chosen strategy is simple_byte
  4856                           
  4857                           	movf 0+(??_myIsr+0)+0,w
  4858  0095  0876               	opt asmopt_push
  4859                           	opt asmopt_off
  4860                           	xorlw	1^0	; case 1
  4861  0096  3A01               	skipnz
  4862  0097  1903               	goto	i1l1196
  4863  0098  2869               	xorlw	2^1	; case 2
  4864  0099  3A03               	skipnz
  4865  009A  1903               	goto	i1l1198
  4866  009B  2870               	xorlw	3^2	; case 3
  4867  009C  3A01               	skipnz
  4868  009D  1903               	goto	i1l1200
  4869  009E  2877               	xorlw	4^3	; case 4
  4870  009F  3A07               	skipnz
  4871  00A0  1903               	goto	i1l1202
  4872  00A1  287E               	goto	i1l135
  4873  00A2  2885               	opt asmopt_pop
  4874                           
  4875                           	
  4876                           i1l131:	
  4877  00A3                     	line	160
  4878                           ;C:/Users/lexa/MPLABXProjects/4dLED.X/newmain4dLED_before dots.c: 160:         SSP1IF = 
                                 0;
  4879                           	movlb 0	; select bank0
  4880  00A3  0020               	bcf	(139/8),(139)&7	;volatile
  4881  00A4  1191               	goto	i1l136
  4882  00A5  28A6               	line	161
  4883                           ;C:/Users/lexa/MPLABXProjects/4dLED.X/newmain4dLED_before dots.c: 161:     }
  4884                           	
  4885                           i1l128:	
  4886  00A6                     	line	165
  4887                           ;C:/Users/lexa/MPLABXProjects/4dLED.X/newmain4dLED_before dots.c: 164:     return;
  4888                           	
  4889                           i1l136:	
  4890  00A6                     	bcf int$flags,0 ;clear compiler interrupt flag (level 1)
  4891  00A6  107E               	retfie
  4892  00A7  0009               	opt stack 0
  4893                           GLOBAL	__end_of_myIsr
  4894                           	__end_of_myIsr:
  4895  00A8                     	signat	_myIsr,89
  4896                           global	___latbits
  4897                           ___latbits	equ	1
  4898  0001                     	global	btemp
  4899                           	btemp set 07Eh
  4900  007E                     
  4901                           	DABS	1,126,2	;btemp
  4902                           	global	int$flags
  4903                           	int$flags	set btemp
  4904  007E                     	global	wtemp0
  4905                           	wtemp0 set btemp+0
  4906  007E                     	end


Data Sizes:
    Strings     0
    Constant    0
    Data        0
    BSS         22
    Persistent  1
    Stack       0

Auto Spaces:
    Space          Size  Autos    Used
    COMMON           14      3      10
    BANK0            80      4      20
    BANK1            80      0       0
    BANK2            80      0       0

Pointer List with Targets:

    None.

Critical Paths under _main in COMMON

    None.

Critical Paths under _myIsr in COMMON

    None.

Critical Paths under _main in BANK0

    _main->_display

Critical Paths under _myIsr in BANK0

    None.

Critical Paths under _main in BANK1

    None.

Critical Paths under _myIsr in BANK1

    None.

Critical Paths under _main in BANK2

    None.

Critical Paths under _myIsr in BANK2

    None.

Call Graph Tables:

 ---------------------------------------------------------------------------------
 (Depth) Function   	        Calls       Base Space   Used Autos Params    Refs
 ---------------------------------------------------------------------------------
 (0) _main                                                 2     2      0    1111
                                              2 BANK0      2     2      0
                            _display
                       _display_dash
 ---------------------------------------------------------------------------------
 (1) _display_dash                                         0     0      0       0
 ---------------------------------------------------------------------------------
 (1) _display                                              2     0      2    1111
                                              0 BANK0      2     0      2
 ---------------------------------------------------------------------------------
 Estimated maximum stack depth 1
 ---------------------------------------------------------------------------------
 (Depth) Function   	        Calls       Base Space   Used Autos Params    Refs
 ---------------------------------------------------------------------------------
 (2) _myIsr                                                3     3      0       0
                                              0 COMMON     3     3      0
 ---------------------------------------------------------------------------------
 Estimated maximum stack depth 2
 ---------------------------------------------------------------------------------

 Call Graph Graphs:

 _main (ROOT)
   _display
   _display_dash

 _myIsr (ROOT)

 Address spaces:
Name               Size   Autos  Total    Cost      Usage
BIGRAM              F0      0       0       0        0.0%
NULL                 0      0       0       0        0.0%
CODE                 0      0       0       0        0.0%
BITCOMMON            E      0       0       1        0.0%
BITSFR0              0      0       0       1        0.0%
SFR0                 0      0       0       1        0.0%
COMMON               E      3       A       2       71.4%
BITSFR1              0      0       0       2        0.0%
SFR1                 0      0       0       2        0.0%
BITSFR2              0      0       0       3        0.0%
SFR2                 0      0       0       3        0.0%
STACK                0      0       0       3        0.0%
BITSFR3              0      0       0       4        0.0%
SFR3                 0      0       0       4        0.0%
ABS                  0      0      1E       4        0.0%
BITBANK0            50      0       0       5        0.0%
BITSFR4              0      0       0       5        0.0%
SFR4                 0      0       0       5        0.0%
BANK0               50      4      14       6       25.0%
BITSFR5              0      0       0       6        0.0%
SFR5                 0      0       0       6        0.0%
BITBANK1            50      0       0       7        0.0%
BITSFR6              0      0       0       7        0.0%
SFR6                 0      0       0       7        0.0%
BANK1               50      0       0       8        0.0%
BITSFR7              0      0       0       8        0.0%
SFR7                 0      0       0       8        0.0%
BITBANK2            50      0       0       9        0.0%
BITSFR8              0      0       0       9        0.0%
SFR8                 0      0       0       9        0.0%
BANK2               50      0       0      10        0.0%
BITSFR9              0      0       0      10        0.0%
SFR9                 0      0       0      10        0.0%
BITSFR10             0      0       0      11        0.0%
SFR10                0      0       0      11        0.0%
DATA                 0      0      1E      11        0.0%
BITSFR11             0      0       0      12        0.0%
SFR11                0      0       0      12        0.0%
BITSFR12             0      0       0      13        0.0%
SFR12                0      0       0      13        0.0%
BITSFR13             0      0       0      14        0.0%
SFR13                0      0       0      14        0.0%
BITSFR14             0      0       0      15        0.0%
SFR14                0      0       0      15        0.0%
BITSFR15             0      0       0      16        0.0%
SFR15                0      0       0      16        0.0%
BITSFR16             0      0       0      17        0.0%
SFR16                0      0       0      17        0.0%
BITSFR17             0      0       0      18        0.0%
SFR17                0      0       0      18        0.0%
BITSFR18             0      0       0      19        0.0%
SFR18                0      0       0      19        0.0%
BITSFR19             0      0       0      20        0.0%
SFR19                0      0       0      20        0.0%
BITSFR20             0      0       0      21        0.0%
SFR20                0      0       0      21        0.0%
BITSFR21             0      0       0      22        0.0%
SFR21                0      0       0      22        0.0%
BITSFR22             0      0       0      23        0.0%
SFR22                0      0       0      23        0.0%
BITSFR23             0      0       0      24        0.0%
SFR23                0      0       0      24        0.0%
BITSFR24             0      0       0      25        0.0%
SFR24                0      0       0      25        0.0%
BITSFR25             0      0       0      26        0.0%
SFR25                0      0       0      26        0.0%
BITSFR26             0      0       0      27        0.0%
SFR26                0      0       0      27        0.0%
BITSFR27             0      0       0      28        0.0%
SFR27                0      0       0      28        0.0%
BITSFR28             0      0       0      29        0.0%
SFR28                0      0       0      29        0.0%
BITSFR29             0      0       0      30        0.0%
SFR29                0      0       0      30        0.0%
BITSFR30             0      0       0      31        0.0%
SFR30                0      0       0      31        0.0%
BITSFR31             0      0       0      32        0.0%
SFR31                0      0       0      32        0.0%


Microchip Technology PIC Macro Assembler V2.00 build -1524193055 
Symbol Table                                                                                   Mon Jul 09 22:58:25 2018

                      _t 0075              __CFG_CP$OFF 0000                       _on 0070  
          ?_display_dash 0076                      l200 0442                      l201 046C  
                    l210 05E6                      l202 0496                      l211 0610  
                    l203 04C0                      l204 04EA                      l212 06A3  
                    l205 0514                      l141 0EC6                      l206 053E  
                    l142 0FFC                      l150 0EFE                      l207 0568  
                    l215 06E6                      l143 0F5C                      l151 0F02  
                    l208 0592                      l160 0F5D                      l144 0F44  
                    l152 0F09                      l209 05BC                      l161 0F6A  
                    l153 0F1B                      l145 0ED2                      l170 0FBF  
                    l162 0F76                      l154 0F1F                      l146 0EE2  
                    l163 0FF8                      l171 0FCD                      l155 0F26  
                    l147 0EE6                      l180 06A3                      l172 0FD9  
                    l164 0F7D                      l148 0F5B                      l156 0F38  
                    l181 0124                      l173 0FFD                      l165 0F8B  
                    l157 0F3C                      l149 0EED                      l190 029E  
                    l182 014E                      l174 0FFE                      l158 0FF9  
                    l166 0F97                      l191 02C8                      l183 0178  
                    l175 0FFE                      l159 0FE1                      l167 0F9E  
                    l192 02F2                      l184 01A2                      l168 0FAC  
                    l193 031C                      l185 01CC                      l169 0FB8  
                    l178 063B                      l194 0346                      l186 01F6  
                    l195 0370                      l187 0220                      l179 00FA  
                    l196 039A                      l188 024A                      l197 03C4  
                    l189 0274                      l198 03EE                      l199 0418  
                    _GIE 005F                      u400 0F2C                      u401 0F2B  
                    u410 0F62                      u411 0F61                      u420 0F82  
                    u421 0F81                      u430 0FA3                      u350 0ECB  
                    _PR2 001B                      u431 0FA2                      u351 0ECA  
                    u440 0FC4                      u360 0ED0                      u441 0FC3  
                    u361 0ECF                      u370 0ED7                      u371 0ED6  
                    u380 0EF2                      u381 0EF1                      u390 0F0F  
                    u391 0F0E                      _dp1 0027                      _dp2 0026  
                    _dp3 0025                      _dp4 0024                      _buf 0022  
                    _off 0079             __CFG_BORV$LO 0000                      wreg 0009  
           __CFG_LVP$OFF 0000                     l1150 06A4                     l1500 024A  
                   l1510 031C                     l1502 0274                     l1520 03EE  
                   l1512 0346                     l1504 029E                     l1600 0E8F  
                   l1530 04C0                     l1522 0418                     l1514 0370  
                   l1506 02C8                     l1610 0EA8                     l1602 0E94  
                   l1540 0592                     l1532 04EA                     l1524 0442  
                   l1516 039A                     l1508 02F2                     l1700 0FB8  
                   l1620 0EBA                     l1612 0EAD                     l1604 0E99  
                   l1542 05BC                     l1534 0514                     l1526 046C  
                   l1518 03C4                     l1550 063B                     l1710 0FE0  
                   l1702 0FBF                     l1630 0EC0                     l1622 0EBB  
                   l1614 0EB2                     l1606 0E9E                     l1544 05E6  
                   l1536 053E                     l1528 0496                     l1704 0FC4  
                   l1640 0ED1                     l1712 0FE1                     l1632 0EC1  
                   l1624 0EBD                     l1616 0EB7                     l1608 0EA3  
                   l1560 0E51                     l1546 0610                     l1538 0568  
                   l1490 0178                     l1482 00BC                     l1706 0FCD  
                   l1650 0EED                     l1714 0FF9                     l1642 0ED2  
                   l1634 0EC3                     l1626 0EBE                     l1618 0EB8  
                   l1570 0E57                     l1562 0E53                     l1548 063A  
                   l1492 01A2                     l1484 00FA                     l1708 0FD9  
                   l1660 0F0F                     l1652 0EF2                     l1644 0ED7  
                   l1636 0EC6                     l1628 0EBF                     l1580 0E69  
                   l1572 0E58                     l1564 0E54                     l1556 0E4E  
                   l1494 01CC                     l1486 0124                     l1830 0FEA  
                   l1670 0F38                     l1662 0F1B                     l1654 0EFE  
                   l1646 0EE2                     l1638 0ECB                     l1590 0E78  
                   l1582 0E6D                     l1574 0E5A                     l1566 0E55  
                   l1558 0E4F                     l1832 0641                     l1496 01F6  
                   l1488 014E                     l1680 0F62                     l1672 0F3C  
                   l1664 0F1F                     l1656 0F02                     l1648 0EE6  
                   l1592 0E7A                     l1584 0E6F                     l1576 0E5D  
                   l1568 0E56                     l1498 0220                     l1690 0F8B  
                   l1682 0F6A                     l1674 0F43                     l1666 0F26  
                   l1658 0F09                     l1594 0E80                     l1586 0E75  
                   l1578 0E67                     l1692 0F97                     l1684 0F76  
                   l1828 0F4D                     l1668 0F2C                     l1676 0F44  
                   l1596 0E85                     l1588 0E76                     l1694 0F9E  
                   l1686 0F7D                     l1678 0F5D                     l1598 0E8A  
                   l1696 0FA3                     l1688 0F82                     l1698 0FAC  
                   _PEIE 005E                     _SCS0 04C8                     _SCS1 04C9  
                   _TMR2 001A                     _WPUA 020C                     _WPUB 020D  
           __CFG_WRT$OFF 0000                     _main 0E4E                     fsr0h 0005  
                   indf0 0000                     fsr0l 0004                     btemp 007E  
                   start 00A8            __CFG_IESO$OFF 0000           ??_display_dash 0079  
                  ?_main 0076            __CFG_WDTE$OFF 0000                    _T2CON 001C  
                  _IRCF0 04CB                    _IRCF1 04CC                    _IRCF2 04CD  
                  _IRCF3 04CE                    i1l120 0016                    i1l121 0018  
                  i1l130 0069                    i1l122 0026                    i1l131 00A3  
                  i1l123 0045                    i1l132 0070                    i1l124 0035  
                  i1l133 0077                    i1l125 0044                    i1l134 007E  
                  i1l126 0041                    i1l135 0085                    i1l119 0049  
                  i1l127 0043                    i1l128 00A6                    i1l136 00A6  
                  i1l129 008D                    u20_20 0021                    u20_21 0020  
                  u21_20 0030                    u21_21 002F                    u22_20 003C  
                  u22_21 003B                    u23_20 004D                    u23_21 004C  
                  u24_25 005B                    u18_20 000B                    u18_21 000A  
                  u19_20 0011                    u19_21 0010                    _TRISA 008C  
                  _TRISB 008D                    _TRISC 008E                    _SSPEN 10AD  
                  _SSSEL 08EC           __CFG_FCMEN$OFF 0000          __end_of_display 06A4  
                  _dummy 002B                    _myIsr 0004           __CFG_BOREN$OFF 0000  
                  status 0003                    wtemp0 007E           _no_spi_counter 0072  
         __CFG_MCLRE$OFF 0000          __initialization 00AA             __end_of_main 1000  
         __CFG_LPBOR$OFF 0000                   ??_main 0032                   ?_myIsr 0076  
                 _ANSELA 018C                   _ANSELB 018D                   _ANSELC 018E  
                 i1l1200 0077                   i1l1202 007E                   i1l1204 008D  
                 i1l1160 0018                   i1l1152 0006                   i1l1170 0030  
                 i1l1162 0021                   i1l1154 000B                   i1l1172 0035  
                 i1l1180 0045                   i1l1164 0026                   i1l1156 0011  
                 i1l1190 0064                   i1l1182 0047                   i1l1174 0036  
                 i1l1166 0028                   i1l1158 0016                   i1l1192 0066  
                 i1l1176 003C                   i1l1168 002A                   i1l1184 0049  
                 i1l1194 0067                   i1l1186 004D                   i1l1178 0041  
                 i1l1196 0069                   i1l1188 0056                   i1l1198 0070  
                 i1l1834 0095                   _TMR2IE 0489                   _TMR2IF 0089  
                 _TMR2ON 00E2                   _SSP1IE 048B                   _SSP1IF 008B  
                 _SSPBUF 0211           __CFG_PWRTE$OFF 0000           __CFG_STVREN$ON 0000  
                 _digit1 002F                   _digit2 002E                   _digit3 002D  
                 _digit4 002C                   _no_spi 002A                   _update 0029  
              ??_display 0079  __end_of__initialization 00B8     __end_of_display_dash 06E7  
         __pcstackCOMMON 0076            __end_of_myIsr 00A8                  ??_myIsr 0076  
             __pbssBANK0 0020               __pnvCOMMON 0079               __pmaintext 0E4E  
             __pintentry 0004                  _SSPCON1 0215                  _SSPCON3 0217  
                _SSPSTAT 0214                  __ptext1 06A4                  __ptext2 00BC  
                _display 00BC                  _temp_dp 0028    __size_of_display_dash 0043  
                clrloop0 06E8     end_of_initialization 00B8               _temp_digit 0074  
           _display_dash 06A4         __CFG_FOSC$INTOSC 0000      start_initialization 00AA  
            __pbssCOMMON 0070                ___latbits 0001            __pcstackBANK0 0030  
            _digit_error 0073                 ?_display 0030           __size_of_myIsr 00A4  
               _LATAbits 010C                 _LATBbits 010D                 _LATCbits 010E  
              clear_ram0 06E7             _no_spi_digit 0071             _no_spi_timer 0020  
       __size_of_display 05E8             _SSP1CON1bits 0215            __size_of_main 01B2  
               int$flags 007E                 display@x 0030                 intlevel1 0000  
      __CFG_CLKOUTEN$OFF 0000  
